

Microchip Technology PIC18 LITE Macro Assembler V1.30 build 55553 
                                                                                               Wed Mar 12 14:40:31 2014

Microchip Technology Omniscient Code Generator (Lite mode) build 55553
     1                           	processor	18F45J10
     2                           	fnconf	param0,??,?,0
     3                           	opt	pw 120
     4                           	opt	lm
     5                           	psect	nvCOMRAM,global,class=COMRAM,space=1,delta=1
     6                           	psect	cinit,global,reloc=2,class=CODE,delta=1
     7                           	psect	bssCOMRAM,global,class=COMRAM,space=1,delta=1
     8                           	psect	bssBANK0,global,class=BANK0,space=1,delta=1
     9                           	psect	bssBANK1,global,class=BANK1,space=1,delta=1
    10                           	psect	cstackBANK2,global,class=BANK2,space=1,delta=1
    11                           	psect	cstackBANK1,global,class=BANK1,space=1,delta=1
    12                           	psect	cstackBANK0,global,class=BANK0,space=1,delta=1
    13                           	psect	cstackCOMRAM,global,class=COMRAM,space=1,delta=1
    14                           	psect	text0,global,reloc=2,class=CODE,delta=1
    15                           	psect	text1,global,reloc=2,class=CODE,delta=1
    16                           	psect	text2,global,reloc=2,class=CODE,delta=1
    17                           	psect	text3,global,reloc=2,class=CODE,delta=1
    18                           	psect	text4,global,reloc=2,class=CODE,delta=1
    19                           	psect	text5,global,reloc=2,class=CODE,delta=1
    20                           	psect	text6,global,reloc=2,class=CODE,delta=1
    21                           	psect	text7,global,reloc=2,class=CODE,delta=1
    22                           	psect	text8,global,reloc=2,class=CODE,delta=1
    23                           	psect	text9,global,reloc=2,class=CODE,delta=1
    24                           	psect	text10,global,reloc=2,class=CODE,delta=1
    25                           	psect	text11,global,reloc=2,class=CODE,delta=1
    26                           	psect	text12,global,reloc=2,class=CODE,delta=1
    27                           	psect	text13,global,reloc=2,class=CODE,delta=1
    28                           	psect	text14,global,reloc=2,class=CODE,delta=1
    29                           	psect	text15,global,reloc=2,class=CODE,delta=1
    30                           	psect	text16,global,reloc=2,class=CODE,delta=1
    31                           	psect	text17,global,reloc=2,class=CODE,delta=1
    32                           	psect	text18,global,reloc=2,class=CODE,delta=1
    33                           	psect	text19,global,reloc=2,class=CODE,delta=1
    34                           	psect	text20,global,reloc=2,class=CODE,delta=1
    35                           	psect	text21,global,reloc=2,class=CODE,delta=1
    36                           	psect	text22,global,reloc=2,class=CODE,delta=1
    37                           	psect	intcodelo,global,reloc=2,class=CODE,delta=1
    38                           	psect	text24,global,reloc=2,class=CODE,delta=1
    39                           	psect	text25,global,reloc=2,class=CODE,delta=1
    40                           	psect	text26,global,reloc=2,class=CODE,delta=1
    41                           	psect	text27,global,reloc=2,class=CODE,delta=1
    42                           	psect	text28,global,reloc=2,class=CODE,delta=1
    43                           	psect	text29,global,reloc=2,class=CODE,delta=1
    44                           	psect	text30,global,reloc=2,class=CODE,delta=1
    45                           	psect	text31,global,reloc=2,class=CODE,delta=1
    46                           	psect	intcode,global,reloc=2,class=CODE,delta=1
    47                           	psect	intcode_body,global,reloc=2,class=CODE,delta=1
    48                           	psect	text33,global,reloc=2,class=CODE,delta=1
    49                           	psect	text34,global,reloc=2,class=CODE,delta=1
    50                           	psect	text35,global,reloc=2,class=CODE,delta=1
    51                           	psect	text36,global,reloc=2,class=CODE,delta=1
    52                           	psect	text37,global,reloc=2,class=CODE,delta=1
    53                           	psect	text38,global,reloc=2,class=CODE,delta=1
    54                           	psect	text39,global,reloc=2,class=CODE,delta=1
    55                           	psect	text40,global,reloc=2,class=CODE,delta=1
    56                           	psect	text41,global,reloc=2,class=CODE,delta=1
    57                           	psect	text42,global,reloc=2,class=CODE,delta=1
    58                           	psect	text43,global,reloc=2,class=CODE,delta=1
    59                           	psect	text44,global,reloc=2,class=CODE,delta=1
    60                           	psect	text45,global,reloc=2,class=CODE,delta=1
    61                           	psect	text46,global,reloc=2,class=CODE,delta=1
    62                           	psect	text47,global,reloc=2,class=CODE,delta=1
    63                           	psect	text48,global,reloc=2,class=CODE,delta=1
    64                           	psect	text49,global,reloc=2,class=CODE,delta=1
    65                           	psect	intsave_regs,global,class=BIGRAM,space=1,delta=1
    66                           	psect	param0,global,class=BANK0,space=1,delta=1
    67  0000                     _ADCON0	set	4034
    68  0000                     _ADCON0bits	set	4034
    69  0000                     _ADCON1	set	4033
    70  0000                     _ADCON2	set	4032
    71  0000                     _ADRESH	set	4036
    72  0000                     _ADRESL	set	4035
    73  0000                     _INTCONbits	set	4082
    74  0000                     _IPR1bits	set	3999
    75  0000                     _LATB	set	3978
    76  0000                     _LATBbits	set	3978
    77  0000                     _OSCCON	set	4051
    78  0000                     _OSCCONbits	set	4051
    79  0000                     _OSCTUNEbits	set	3995
    80  0000                     _PIE1bits	set	3997
    81  0000                     _PIR1bits	set	3998
    82  0000                     _RCONbits	set	4048
    83  0000                     _RCREG	set	4014
    84  0000                     _RCSTA	set	4011
    85  0000                     _RCSTAbits	set	4011
    86  0000                     _SPBRG	set	4015
    87  0000                     _SPBRGH	set	4016
    88  0000                     _SSPADD	set	4040
    89  0000                     _SSPBUF	set	4041
    90  0000                     _SSPCON1	set	4038
    91  0000                     _SSPCON1bits	set	4038
    92  0000                     _SSPCON2	set	4037
    93  0000                     _SSPCON2bits	set	4037
    94  0000                     _SSPSTAT	set	4039
    95  0000                     _SSPSTATbits	set	4039
    96  0000                     _T0CON	set	4053
    97  0000                     _T0CONbits	set	4053
    98  0000                     _T1CON	set	4045
    99  0000                     _T1CONbits	set	4045
   100  0000                     _TMR0H	set	4055
   101  0000                     _TMR0L	set	4054
   102  0000                     _TMR1H	set	4047
   103  0000                     _TMR1L	set	4046
   104  0000                     _TRISB	set	3987
   105  0000                     _TRISCbits	set	3988
   106  0000                     _TXSTA	set	4012
   107  0000                     _TXSTAbits	set	4012
   108                           
   109                           	psect	nvCOMRAM
   110  00005E                     __pnvCOMRAM:
   111                           	opt stack 0
   112  00005E                     _ic_ptr:
   113                           	opt stack 0
   114  00005E                     	ds	2
   115  000060                     _uc_ptr:
   116                           	opt stack 0
   117  000060                     	ds	2
   118                           
   119                           ; #config settings
   120  0000                     
   121                           	psect	cinit
   122  0015BE                     __pcinit:
   123                           	opt stack 0
   124  0015BE                     start_initialization:
   125                           	opt stack 0
   126  0015BE                     __initialization:
   127                           	opt stack 0
   128                           
   129                           ; Clear objects allocated to BANK1 (216 bytes)
   130  0015BE  EE01  F000         	lfsr	0,__pbssBANK1
   131  0015C2  0ED8               	movlw	216
   132  0015C4                     clear_0:
   133  0015C4  6AEE               	clrf	postinc0,c
   134  0015C6  06E8               	decf	wreg,f,c
   135  0015C8  E1FD               	bnz	clear_0
   136                           
   137                           ; Clear objects allocated to BANK0 (20 bytes)
   138  0015CA  EE00  F0B9         	lfsr	0,__pbssBANK0
   139  0015CE  0E14               	movlw	20
   140  0015D0                     clear_1:
   141  0015D0  6AEE               	clrf	postinc0,c
   142  0015D2  06E8               	decf	wreg,f,c
   143  0015D4  E1FD               	bnz	clear_1
   144                           
   145                           ; Clear objects allocated to COMRAM (47 bytes)
   146  0015D6  EE00  F001         	lfsr	0,__pbssCOMRAM
   147  0015DA  0E2F               	movlw	47
   148  0015DC                     clear_2:
   149  0015DC  6AEE               	clrf	postinc0,c
   150  0015DE  06E8               	decf	wreg,f,c
   151  0015E0  E1FD               	bnz	clear_2
   152  0015E2                     end_of_initialization:
   153                           	opt stack 0
   154  0015E2                     __end_of__initialization:
   155                           	opt stack 0
   156  0015E2  0E00               	movlw	low (__Lmediumconst shr (0+16))
   157  0015E4  6EF8               	movwf	tblptru,c
   158  0015E6  0100               	movlb	0
   159  0015E8  EFE3  F002         	goto	_main	;jump to C main() function
   160                           tblptru	equ	0xFF8
   161                           postinc0	equ	0xFEE
   162                           wreg	equ	0xFE8
   163                           
   164                           	psect	bssCOMRAM
   165  000001                     __pbssCOMRAM:
   166                           	opt stack 0
   167  000001                     _ADCBuffer0:
   168                           	opt stack 0
   169  000001                     	ds	10
   170  00000B                     _ADCBuffer1:
   171                           	opt stack 0
   172  00000B                     	ds	10
   173  000015                     _buff:
   174                           	opt stack 0
   175  000015                     	ds	10
   176  00001F                     _voltage:
   177                           	opt stack 0
   178  00001F                     	ds	3
   179  000022                     _ADCResult:
   180                           	opt stack 0
   181  000022                     	ds	2
   182  000024                     _bufferFlag:
   183                           	opt stack 0
   184  000024                     	ds	2
   185  000026                     _bufferLen:
   186                           	opt stack 0
   187  000026                     	ds	2
   188  000028                     _previousValue:
   189                           	opt stack 0
   190  000028                     	ds	2
   191  00002A                     _MQ_Main_Willing_to_block:
   192                           	opt stack 0
   193  00002A                     	ds	1
   194  00002B                     _USART_Status:
   195                           	opt stack 0
   196  00002B                     	ds	1
   197  00002C                     _last_reg_recvd:
   198                           	opt stack 0
   199  00002C                     	ds	1
   200  00002D                     _length:
   201                           	opt stack 0
   202  00002D                     	ds	1
   203  00002E                     _msgtype:
   204                           	opt stack 0
   205  00002E                     	ds	1
   206  00002F                     _status:
   207                           	opt stack 0
   208  00002F                     	ds	1
   209                           tblptru	equ	0xFF8
   210                           postinc0	equ	0xFEE
   211                           wreg	equ	0xFE8
   212                           
   213                           	psect	bssBANK0
   214  0000B9                     __pbssBANK0:
   215                           	opt stack 0
   216  0000B9                     _msgbuffer:
   217                           	opt stack 0
   218  0000B9                     	ds	20
   219                           tblptru	equ	0xFF8
   220                           postinc0	equ	0xFEE
   221                           wreg	equ	0xFE8
   222                           
   223                           	psect	bssBANK1
   224  000100                     __pbssBANK1:
   225                           	opt stack 0
   226  000100                     _FromMainHigh_MQ:
   227                           	opt stack 0
   228  000100                     	ds	54
   229  000136                     _FromMainLow_MQ:
   230                           	opt stack 0
   231  000136                     	ds	54
   232  00016C                     _ToMainHigh_MQ:
   233                           	opt stack 0
   234  00016C                     	ds	54
   235  0001A2                     _ToMainLow_MQ:
   236                           	opt stack 0
   237  0001A2                     	ds	54
   238                           tblptru	equ	0xFF8
   239                           postinc0	equ	0xFEE
   240                           wreg	equ	0xFE8
   241                           
   242                           	psect	cstackBANK2
   243  000200                     __pcstackBANK2:
   244                           	opt stack 0
   245  000200                     main@msgbuffer:
   246                           	opt stack 0
   247                           
   248                           ; 11 bytes @ 0x0
   249  000200                     	ds	11
   250  00020B                     main@length:
   251                           	opt stack 0
   252                           
   253                           ; 1 bytes @ 0xB
   254  00020B                     	ds	1
   255  00020C                     main@config1:
   256                           	opt stack 0
   257                           
   258                           ; 1 bytes @ 0xC
   259  00020C                     	ds	1
   260  00020D                     main@config2:
   261                           	opt stack 0
   262                           
   263                           ; 1 bytes @ 0xD
   264  00020D                     	ds	1
   265  00020E                     main@portconfig:
   266                           	opt stack 0
   267                           
   268                           ; 1 bytes @ 0xE
   269  00020E                     	ds	1
   270  00020F                     main@t1thread_data:
   271                           	opt stack 0
   272                           
   273                           ; 2 bytes @ 0xF
   274  00020F                     	ds	2
   275  000211                     main@msgtype:
   276                           	opt stack 0
   277                           
   278                           ; 1 bytes @ 0x11
   279  000211                     	ds	1
   280  000212                     main@uc:
   281                           	opt stack 0
   282                           
   283                           ; 5 bytes @ 0x12
   284  000212                     	ds	5
   285  000217                     main@ic:
   286                           	opt stack 0
   287                           
   288                           ; 28 bytes @ 0x17
   289  000217                     	ds	28
   290                           tblptru	equ	0xFF8
   291                           postinc0	equ	0xFEE
   292                           wreg	equ	0xFE8
   293                           
   294                           	psect	cstackBANK1
   295  0001D8                     __pcstackBANK1:
   296                           	opt stack 0
   297  0001D8                     ??_block_on_To_msgqueues:
   298  0001D8                     memcpy@d:
   299                           	opt stack 0
   300                           
   301                           ; 2 bytes @ 0x0
   302  0001D8                     	ds	2
   303  0001DA                     memcpy@s:
   304                           	opt stack 0
   305                           
   306                           ; 2 bytes @ 0x2
   307  0001DA                     	ds	2
   308  0001DC                     recv_msg@qptr:
   309                           	opt stack 0
   310                           
   311                           ; 2 bytes @ 0x4
   312  0001DC                     	ds	2
   313  0001DE                     recv_msg@maxlength:
   314                           	opt stack 0
   315                           
   316                           ; 1 bytes @ 0x6
   317  0001DE                     	ds	1
   318  0001DF                     recv_msg@msgtype:
   319                           	opt stack 0
   320                           
   321                           ; 2 bytes @ 0x7
   322  0001DF                     	ds	2
   323  0001E1                     recv_msg@data:
   324                           	opt stack 0
   325                           
   326                           ; 2 bytes @ 0x9
   327  0001E1                     	ds	2
   328  0001E3                     ??_recv_msg:
   329                           
   330                           ; 0 bytes @ 0xB
   331  0001E3                     	ds	2
   332  0001E5                     recv_msg@slot:
   333                           	opt stack 0
   334                           
   335                           ; 1 bytes @ 0xD
   336  0001E5                     	ds	1
   337  0001E6                     recv_msg@tlength:
   338                           	opt stack 0
   339                           
   340                           ; 2 bytes @ 0xE
   341  0001E6                     	ds	2
   342  0001E8                     recv_msg@qmsg:
   343                           	opt stack 0
   344                           
   345                           ; 2 bytes @ 0x10
   346  0001E8                     	ds	2
   347  0001EA                     ToMainLow_recvmsg@msgtype:
   348                           	opt stack 0
   349  0001EA                     ToMainHigh_recvmsg@msgtype:
   350                           	opt stack 0
   351                           
   352                           ; 2 bytes @ 0x12
   353  0001EA                     	ds	2
   354  0001EC                     ToMainLow_recvmsg@data:
   355                           	opt stack 0
   356  0001EC                     ToMainHigh_recvmsg@data:
   357                           	opt stack 0
   358                           
   359                           ; 2 bytes @ 0x14
   360  0001EC                     	ds	2
   361  0001EE                     ToMainLow_recvmsg@maxlength:
   362                           	opt stack 0
   363  0001EE                     ToMainHigh_recvmsg@maxlength:
   364                           	opt stack 0
   365                           
   366                           ; 1 bytes @ 0x16
   367  0001EE                     	ds	1
   368  0001EF                     ??_main:
   369                           
   370                           ; 0 bytes @ 0x17
   371  0001EF                     	ds	2
   372                           tblptru	equ	0xFF8
   373                           postinc0	equ	0xFEE
   374                           wreg	equ	0xFE8
   375                           
   376                           	psect	cstackBANK0
   377  000080                     __pcstackBANK0:
   378                           	opt stack 0
   379  000080                     ?i2_in_high_int:
   380                           	opt stack 0
   381  000080                     handle_start@data_read:
   382                           	opt stack 0
   383  000080                     start_i2c_slave_reply@msg:
   384                           	opt stack 0
   385  000080                     WriteTimer0@timer0:
   386                           	opt stack 0
   387  000080                     i2check_msg@qptr:
   388                           	opt stack 0
   389  000080                     i2memcpy@d1:
   390                           	opt stack 0
   391                           
   392                           ; 2 bytes @ 0x0
   393  000080                     	ds	2
   394  000082                     ??_start_i2c_slave_reply:
   395  000082                     ??i2_check_msg:
   396  000082                     ?i2_in_low_int:
   397                           	opt stack 0
   398  000082                     WriteTimer0@timer:
   399                           	opt stack 0
   400  000082                     i2memcpy@s1:
   401                           	opt stack 0
   402                           
   403                           ; 2 bytes @ 0x2
   404  000082                     	ds	2
   405  000084                     start_i2c_slave_reply@length:
   406                           	opt stack 0
   407  000084                     i2memcpy@n:
   408                           	opt stack 0
   409                           
   410                           ; 2 bytes @ 0x4
   411  000084                     	ds	1
   412  000085                     ??_readMessages:
   413                           
   414                           ; 0 bytes @ 0x5
   415  000085                     	ds	1
   416  000086                     i2memcpy@d:
   417                           	opt stack 0
   418  000086                     readMessages@buf:
   419                           	opt stack 0
   420                           
   421                           ; 5 bytes @ 0x6
   422  000086                     	ds	2
   423  000088                     i2memcpy@s:
   424                           	opt stack 0
   425                           
   426                           ; 2 bytes @ 0x8
   427  000088                     	ds	2
   428  00008A                     i2send_msg@qptr:
   429                           	opt stack 0
   430  00008A                     i2recv_msg@qptr:
   431                           	opt stack 0
   432                           
   433                           ; 2 bytes @ 0xA
   434  00008A                     	ds	2
   435  00008C                     i2send_msg@length:
   436                           	opt stack 0
   437  00008C                     i2recv_msg@maxlength:
   438                           	opt stack 0
   439                           
   440                           ; 1 bytes @ 0xC
   441  00008C                     	ds	1
   442  00008D                     i2send_msg@msgtype:
   443                           	opt stack 0
   444  00008D                     i2recv_msg@msgtype:
   445                           	opt stack 0
   446                           
   447                           ; 2 bytes @ 0xD
   448  00008D                     	ds	1
   449  00008E                     i2send_msg@data:
   450                           	opt stack 0
   451                           
   452                           ; 2 bytes @ 0xE
   453  00008E                     	ds	1
   454  00008F                     i2recv_msg@data:
   455                           	opt stack 0
   456                           
   457                           ; 2 bytes @ 0xF
   458  00008F                     	ds	1
   459  000090                     ??i2_send_msg:
   460                           
   461                           ; 0 bytes @ 0x10
   462  000090                     	ds	1
   463  000091                     ??i2_recv_msg:
   464  000091                     i2send_msg@tlength:
   465                           	opt stack 0
   466                           
   467                           ; 2 bytes @ 0x11
   468  000091                     	ds	2
   469  000093                     i2send_msg@slot:
   470                           	opt stack 0
   471  000093                     i2recv_msg@slot:
   472                           	opt stack 0
   473                           
   474                           ; 1 bytes @ 0x13
   475  000093                     	ds	1
   476  000094                     i2send_msg@qmsg:
   477                           	opt stack 0
   478  000094                     i2recv_msg@tlength:
   479                           	opt stack 0
   480                           
   481                           ; 2 bytes @ 0x14
   482  000094                     	ds	2
   483  000096                     ToMainHigh_sendmsg@msgtype:
   484                           	opt stack 0
   485  000096                     i2recv_msg@qmsg:
   486                           	opt stack 0
   487                           
   488                           ; 2 bytes @ 0x16
   489  000096                     	ds	1
   490  000097                     ToMainHigh_sendmsg@data:
   491                           	opt stack 0
   492                           
   493                           ; 2 bytes @ 0x17
   494  000097                     	ds	1
   495  000098                     FromMainHigh_recvmsg@msgtype:
   496                           	opt stack 0
   497                           
   498                           ; 2 bytes @ 0x18
   499  000098                     	ds	1
   500  000099                     ToMainHigh_sendmsg@length:
   501                           	opt stack 0
   502                           
   503                           ; 1 bytes @ 0x19
   504  000099                     	ds	1
   505  00009A                     ??_i2c_int_handler:
   506  00009A                     FromMainHigh_recvmsg@data:
   507                           	opt stack 0
   508                           
   509                           ; 2 bytes @ 0x1A
   510  00009A                     	ds	2
   511  00009C                     FromMainHigh_recvmsg@maxlength:
   512                           	opt stack 0
   513  00009C                     i2c_int_handler@error_buf:
   514                           	opt stack 0
   515                           
   516                           ; 3 bytes @ 0x1C
   517  00009C                     	ds	1
   518  00009D                     ??_timer0_int_handler:
   519                           
   520                           ; 0 bytes @ 0x1D
   521  00009D                     	ds	1
   522  00009E                     timer0_int_handler@length:
   523                           	opt stack 0
   524                           
   525                           ; 2 bytes @ 0x1E
   526  00009E                     	ds	1
   527  00009F                     i2c_int_handler@data_written:
   528                           	opt stack 0
   529                           
   530                           ; 1 bytes @ 0x1F
   531  00009F                     	ds	1
   532  0000A0                     i2c_int_handler@overrun_error:
   533                           	opt stack 0
   534  0000A0                     timer0_int_handler@msgtype:
   535                           	opt stack 0
   536                           
   537                           ; 2 bytes @ 0x20
   538  0000A0                     	ds	1
   539  0000A1                     i2c_int_handler@msg_to_send:
   540                           	opt stack 0
   541                           
   542                           ; 1 bytes @ 0x21
   543  0000A1                     	ds	1
   544  0000A2                     i2c_int_handler@i2c_data:
   545                           	opt stack 0
   546  0000A2                     timer0_int_handler@val:
   547                           	opt stack 0
   548                           
   549                           ; 2 bytes @ 0x22
   550  0000A2                     	ds	1
   551  0000A3                     i2c_int_handler@msg_ready:
   552                           	opt stack 0
   553                           
   554                           ; 1 bytes @ 0x23
   555  0000A3                     	ds	1
   556  0000A4                     i2c_int_handler@data_read:
   557                           	opt stack 0
   558                           
   559                           ; 1 bytes @ 0x24
   560  0000A4                     	ds	1
   561  0000A5                     ??_InterruptHandlerHigh:
   562                           
   563                           ; 0 bytes @ 0x25
   564  0000A5                     	ds	14
   565  0000B3                     ??_SetChanADC:
   566  0000B3                     ?_in_high_int:
   567                           	opt stack 0
   568  0000B3                     i2c_configure_slave@addr:
   569                           	opt stack 0
   570  0000B3                     OpenADC@config2:
   571                           	opt stack 0
   572  0000B3                     OpenTimer0@config:
   573                           	opt stack 0
   574  0000B3                     OpenTimer1@config:
   575                           	opt stack 0
   576  0000B3                     Delay1KTCYx@unit:
   577                           	opt stack 0
   578  0000B3                     init_queue@qptr:
   579                           	opt stack 0
   580  0000B3                     check_msg@qptr:
   581                           	opt stack 0
   582  0000B3                     init_i2c@ic:
   583                           	opt stack 0
   584  0000B3                     init_uart_recv@uc:
   585                           	opt stack 0
   586  0000B3                     init_timer1_lthread@tptr:
   587                           	opt stack 0
   588  0000B3                     OpenUSART@spbrg:
   589                           	opt stack 0
   590  0000B3                     memcpy@d1:
   591                           	opt stack 0
   592                           
   593                           ; 2 bytes @ 0x33
   594  0000B3                     	ds	1
   595  0000B4                     OpenADC@portconfig:
   596                           	opt stack 0
   597  0000B4                     SetChanADC@channel:
   598                           	opt stack 0
   599                           
   600                           ; 1 bytes @ 0x34
   601  0000B4                     	ds	1
   602  0000B5                     ??_OpenADC:
   603  0000B5                     ??_OpenUSART:
   604  0000B5                     ??_init_queue:
   605  0000B5                     ??_check_msg:
   606  0000B5                     ?_in_low_int:
   607                           	opt stack 0
   608  0000B5                     memcpy@s1:
   609                           	opt stack 0
   610                           
   611                           ; 2 bytes @ 0x35
   612  0000B5                     	ds	1
   613  0000B6                     init_queue@i:
   614                           	opt stack 0
   615                           
   616                           ; 1 bytes @ 0x36
   617  0000B6                     	ds	1
   618  0000B7                     ??_init_queues:
   619  0000B7                     ?_in_main:
   620                           	opt stack 0
   621  0000B7                     OpenADC@config:
   622                           	opt stack 0
   623  0000B7                     memcpy@n:
   624                           	opt stack 0
   625                           
   626                           ; 2 bytes @ 0x37
   627  0000B7                     	ds	1
   628  0000B8                     OpenUSART@config:
   629                           	opt stack 0
   630                           
   631                           ; 1 bytes @ 0x38
   632  0000B8                     	ds	1
   633  0000B9                     tblptru	equ	0xFF8
   634                           postinc0	equ	0xFEE
   635                           wreg	equ	0xFE8
   636                           
   637                           ; 0 bytes @ 0x39
   638                           
   639                           	psect	cstackCOMRAM
   640  000030                     __pcstackCOMRAM:
   641                           	opt stack 0
   642  000030                     ?_ReadTimer1:
   643                           	opt stack 0
   644  000030                     ReadUSART@data:
   645                           	opt stack 0
   646  000030                     WriteTimer1@timer1:
   647                           	opt stack 0
   648  000030                     i1memcpy@d1:
   649                           	opt stack 0
   650                           
   651                           ; 2 bytes @ 0x0
   652  000030                     	ds	2
   653  000032                     ReadTimer1@timer:
   654                           	opt stack 0
   655  000032                     WriteTimer1@timer:
   656                           	opt stack 0
   657  000032                     i1memcpy@s1:
   658                           	opt stack 0
   659                           
   660                           ; 2 bytes @ 0x2
   661  000032                     	ds	2
   662  000034                     i1memcpy@n:
   663                           	opt stack 0
   664                           
   665                           ; 2 bytes @ 0x4
   666  000034                     	ds	2
   667  000036                     i1memcpy@d:
   668                           	opt stack 0
   669                           
   670                           ; 2 bytes @ 0x6
   671  000036                     	ds	2
   672  000038                     i1memcpy@s:
   673                           	opt stack 0
   674                           
   675                           ; 2 bytes @ 0x8
   676  000038                     	ds	2
   677  00003A                     send_msg@qptr:
   678                           	opt stack 0
   679                           
   680                           ; 2 bytes @ 0xA
   681  00003A                     	ds	2
   682  00003C                     send_msg@length:
   683                           	opt stack 0
   684                           
   685                           ; 1 bytes @ 0xC
   686  00003C                     	ds	1
   687  00003D                     send_msg@msgtype:
   688                           	opt stack 0
   689                           
   690                           ; 1 bytes @ 0xD
   691  00003D                     	ds	1
   692  00003E                     send_msg@data:
   693                           	opt stack 0
   694                           
   695                           ; 2 bytes @ 0xE
   696  00003E                     	ds	2
   697  000040                     ??_send_msg:
   698                           
   699                           ; 0 bytes @ 0x10
   700  000040                     	ds	1
   701  000041                     send_msg@tlength:
   702                           	opt stack 0
   703                           
   704                           ; 2 bytes @ 0x11
   705  000041                     	ds	2
   706  000043                     send_msg@slot:
   707                           	opt stack 0
   708                           
   709                           ; 1 bytes @ 0x13
   710  000043                     	ds	1
   711  000044                     send_msg@qmsg:
   712                           	opt stack 0
   713                           
   714                           ; 2 bytes @ 0x14
   715  000044                     	ds	2
   716  000046                     ToMainLow_sendmsg@msgtype:
   717                           	opt stack 0
   718                           
   719                           ; 1 bytes @ 0x16
   720  000046                     	ds	1
   721  000047                     ToMainLow_sendmsg@data:
   722                           	opt stack 0
   723                           
   724                           ; 2 bytes @ 0x17
   725  000047                     	ds	2
   726  000049                     ToMainLow_sendmsg@length:
   727                           	opt stack 0
   728                           
   729                           ; 1 bytes @ 0x19
   730  000049                     	ds	1
   731  00004A                     ??_timer1_int_handler:
   732  00004A                     ??_uart_recv_int_handler:
   733                           
   734                           ; 0 bytes @ 0x1A
   735  00004A                     	ds	1
   736  00004B                     timer1_int_handler@result:
   737                           	opt stack 0
   738                           
   739                           ; 2 bytes @ 0x1B
   740  00004B                     	ds	2
   741  00004D                     ??_InterruptHandlerLow:
   742                           
   743                           ; 0 bytes @ 0x1D
   744  00004D                     	ds	17
   745                           tblptru	equ	0xFF8
   746                           postinc0	equ	0xFEE
   747                           wreg	equ	0xFE8
   748                           
   749 ;;
   750 ;;Main: autosize = 0, tempsize = 2, incstack = 0, save=0
   751 ;;
   752 ;; *************** function _main *****************
   753 ;; Defined at:
   754 ;;		line 189 in file "../src/main.c"
   755 ;; Parameters:    Size  Location     Type
   756 ;;		None
   757 ;; Auto vars:     Size  Location     Type
   758 ;;  ic             28   23[BANK2 ] struct __i2c_comm
   759 ;;  msgbuffer      11    0[BANK2 ] unsigned char [11]
   760 ;;  uc              5   18[BANK2 ] struct __uart_comm
   761 ;;  t1thread_dat    2   15[BANK2 ] struct __timer1_thread_s
   762 ;;  t0thread_dat    2    0        struct __timer0_thread_s
   763 ;;  uthread_data    2    0        struct __uart_thread_str
   764 ;;  msgtype         1   17[BANK2 ] unsigned char 
   765 ;;  portconfig      1   14[BANK2 ] unsigned char 
   766 ;;  config2         1   13[BANK2 ] unsigned char 
   767 ;;  config1         1   12[BANK2 ] unsigned char 
   768 ;;  length          1   11[BANK2 ] char 
   769 ;;  i               1    0        unsigned char 
   770 ;;  last_reg_rec    1    0        unsigned char 
   771 ;;  c               1    0        unsigned char 
   772 ;; Return value:  Size  Location     Type
   773 ;;		None               void
   774 ;; Registers used:
   775 ;;		wreg, fsr1l, fsr1h, fsr2l, fsr2h, status,2, status,0, prodl, prodh, cstack
   776 ;; Tracked objects:
   777 ;;		On entry : 0/0
   778 ;;		On exit  : 0/0
   779 ;;		Unchanged: 0/0
   780 ;; Data sizes:     COMRAM   BANK0   BANK1   BANK2   BANK3
   781 ;;      Params:         0       0       0       0       0
   782 ;;      Locals:         0       0       0      51       0
   783 ;;      Temps:          0       0       2       0       0
   784 ;;      Totals:         0       0       2      51       0
   785 ;;Total ram usage:       53 bytes
   786 ;; Hardware stack levels required when called:   14
   787 ;; This function calls:
   788 ;;		_OpenADC
   789 ;;		_OpenTimer0
   790 ;;		_OpenTimer1
   791 ;;		_OpenUSART
   792 ;;		_SetChanADC
   793 ;;		_ToMainHigh_recvmsg
   794 ;;		_ToMainLow_recvmsg
   795 ;;		_block_on_To_msgqueues
   796 ;;		_enable_interrupts
   797 ;;		_i2c_configure_slave
   798 ;;		_init_i2c
   799 ;;		_init_queues
   800 ;;		_init_timer1_lthread
   801 ;;		_init_uart_recv
   802 ;; This function is called by:
   803 ;;		Startup code after reset
   804 ;; This function uses a non-reentrant model
   805 ;;
   806                           
   807                           	psect	text0
   808  0005C6                     __ptext0:
   809                           	opt stack 0
   810  0005C6                     _main:
   811                           	opt stack 16
   812                           
   813                           ;main.c: 190: char c;
   814                           ;main.c: 191: signed char length;
   815                           ;main.c: 192: unsigned char msgtype;
   816                           ;main.c: 193: unsigned char last_reg_recvd;
   817                           ;main.c: 194: uart_comm uc;
   818                           ;main.c: 195: i2c_comm ic;
   819                           ;main.c: 196: unsigned char msgbuffer[10 + 1];
   820                           ;main.c: 197: unsigned char i;
   821                           ;main.c: 198: uart_thread_struct uthread_data;
   822                           ;main.c: 199: timer1_thread_struct t1thread_data;
   823                           ;main.c: 200: timer0_thread_struct t0thread_data;
   824                           ;main.c: 203: unsigned char config1 = 0x00, config2 = 0x00, portconfig = 0x00;
   825                           
   826                           ;incstack = 0
   827  0005C6  0101               	movlb	1	; () banked
   828  0005C8  6FEF               	movwf	??_main& (0+255),b
   829  0005CA  0E00               	movlw	0
   830  0005CC  0102               	movlb	2	; () banked
   831  0005CE  0102               	movlb	2	; () banked
   832  0005D0  6F0C               	movwf	main@config1& (0+255),b
   833  0005D2  0101               	movlb	1	; () banked
   834  0005D4  51EF               	movf	??_main& (0+255),w,b
   835  0005D6  0101               	movlb	1	; () banked
   836  0005D8  6FEF               	movwf	??_main& (0+255),b
   837  0005DA  0E00               	movlw	0
   838  0005DC  0102               	movlb	2	; () banked
   839  0005DE  0102               	movlb	2	; () banked
   840  0005E0  6F0D               	movwf	main@config2& (0+255),b
   841  0005E2  0101               	movlb	1	; () banked
   842  0005E4  51EF               	movf	??_main& (0+255),w,b
   843  0005E6  0101               	movlb	1	; () banked
   844  0005E8  6FEF               	movwf	??_main& (0+255),b
   845  0005EA  0E00               	movlw	0
   846  0005EC  0102               	movlb	2	; () banked
   847  0005EE  0102               	movlb	2	; () banked
   848  0005F0  6F0E               	movwf	main@portconfig& (0+255),b
   849  0005F2  0101               	movlb	1	; () banked
   850  0005F4  51EF               	movf	??_main& (0+255),w,b
   851                           
   852                           ; BSR set to: 1
   853                           ;main.c: 208: config1 = 0b10011111 | 0b11111111 | 0b11110011;
   854  0005F6  0102               	movlb	2	; () banked
   855  0005F8  0102               	movlb	2	; () banked
   856  0005FA  690C               	setf	main@config1& (0+255),b
   857                           
   858                           ; BSR set to: 2
   859                           ;main.c: 209: config2 = 0b10000111 | 0b11111111 | 0b11111100;
   860  0005FC  0102               	movlb	2	; () banked
   861  0005FE  0102               	movlb	2	; () banked
   862  000600  690D               	setf	main@config2& (0+255),b
   863                           
   864                           ; BSR set to: 2
   865                           ;main.c: 211: portconfig = 0b11111111;
   866  000602  0102               	movlb	2	; () banked
   867  000604  0102               	movlb	2	; () banked
   868  000606  690E               	setf	main@portconfig& (0+255),b
   869                           
   870                           ; BSR set to: 2
   871                           ;main.c: 221: OSCCON = 0x82;
   872  000608  0E82               	movlw	130
   873  00060A  6ED3               	movwf	4051,c	;volatile
   874                           
   875                           ; BSR set to: 2
   876                           ;main.c: 222: OSCTUNEbits.PLLEN = 1;
   877  00060C  8C9B               	bsf	3995,6,c	;volatile
   878                           
   879                           ; BSR set to: 2
   880                           ;main.c: 241: init_uart_recv(&uc);
   881  00060E  0102               	movlb	2	; () banked
   882  000610  0E02               	movlw	high main@uc
   883  000612  0100               	movlb	0	; () banked
   884  000614  0100               	movlb	0	; () banked
   885  000616  6FB4               	movwf	(init_uart_recv@uc+1)& (0+255),b
   886  000618  0102               	movlb	2	; () banked
   887  00061A  0E12               	movlw	low main@uc
   888  00061C  0100               	movlb	0	; () banked
   889  00061E  0100               	movlb	0	; () banked
   890  000620  6FB3               	movwf	init_uart_recv@uc& (0+255),b
   891  000622  EC42  F00B         	call	_init_uart_recv	;wreg free
   892                           
   893                           ;main.c: 244: init_i2c(&ic);
   894  000626  0102               	movlb	2	; () banked
   895  000628  0E02               	movlw	high main@ic
   896  00062A  0100               	movlb	0	; () banked
   897  00062C  0100               	movlb	0	; () banked
   898  00062E  6FB4               	movwf	(init_i2c@ic+1)& (0+255),b
   899  000630  0102               	movlb	2	; () banked
   900  000632  0E17               	movlw	low main@ic
   901  000634  0100               	movlb	0	; () banked
   902  000636  0100               	movlb	0	; () banked
   903  000638  6FB3               	movwf	init_i2c@ic& (0+255),b
   904  00063A  EC48  F009         	call	_init_i2c	;wreg free
   905                           
   906                           ;main.c: 247: init_timer1_lthread(&t1thread_data);
   907  00063E  0102               	movlb	2	; () banked
   908  000640  0E02               	movlw	high main@t1thread_data
   909  000642  0100               	movlb	0	; () banked
   910  000644  0100               	movlb	0	; () banked
   911  000646  6FB4               	movwf	(init_timer1_lthread@tptr+1)& (0+255),b
   912  000648  0102               	movlb	2	; () banked
   913  00064A  0E0F               	movlw	low main@t1thread_data
   914  00064C  0100               	movlb	0	; () banked
   915  00064E  0100               	movlb	0	; () banked
   916  000650  6FB3               	movwf	init_timer1_lthread@tptr& (0+255),b
   917  000652  EC6B  F00B         	call	_init_timer1_lthread	;wreg free
   918                           
   919                           ;main.c: 250: init_queues();
   920  000656  EC7E  F008         	call	_init_queues	;wreg free
   921                           
   922                           ;main.c: 254: TRISB = 0x0;
   923  00065A  0E00               	movlw	0
   924  00065C  6E93               	movwf	3987,c	;volatile
   925                           
   926                           ;main.c: 255: LATB = 0x0;
   927  00065E  0E00               	movlw	0
   928  000660  6E8A               	movwf	3978,c	;volatile
   929                           
   930                           ;main.c: 268: OpenTimer0(0b11111111 & 0b11111111 & 0b11011111 & 0b11110011);
   931  000662  0ED3               	movlw	211
   932  000664  ECF6  F00A         	call	_OpenTimer0
   933                           
   934                           ;main.c: 270: OpenADC(0b11011111 & 0b11111111 & 0b11110011,
   935                           ;main.c: 271: 0b10000111 & 0b10001111 &
   936                           ;main.c: 272: 0b11111111 & 0b11111110 &
   937                           ;main.c: 273: 0b11111101, 0b1011);
   938  000668  0101               	movlb	1	; () banked
   939  00066A  6FEF               	movwf	??_main& (0+255),b
   940  00066C  0E84               	movlw	132
   941  00066E  0100               	movlb	0	; () banked
   942  000670  0100               	movlb	0	; () banked
   943  000672  6FB3               	movwf	OpenADC@config2& (0+255),b
   944  000674  0101               	movlb	1	; () banked
   945  000676  51EF               	movf	??_main& (0+255),w,b
   946  000678  0101               	movlb	1	; () banked
   947  00067A  6FF0               	movwf	(??_main+1)& (0+255),b
   948  00067C  0E0B               	movlw	11
   949  00067E  0100               	movlb	0	; () banked
   950  000680  0100               	movlb	0	; () banked
   951  000682  6FB4               	movwf	OpenADC@portconfig& (0+255),b
   952  000684  0101               	movlb	1	; () banked
   953  000686  51F0               	movf	(??_main+1)& (0+255),w,b
   954  000688  0ED3               	movlw	211
   955  00068A  EC43  F007         	call	_OpenADC
   956                           
   957                           ;main.c: 275: SetChanADC(0b10000111);
   958  00068E  0E87               	movlw	135
   959  000690  EC32  F00B         	call	_SetChanADC
   960                           
   961                           ;main.c: 284: OpenTimer1(0b11111111 & 0b11111111 & 0b11111111 & 0b11111101 & 0b11110111 
      +                          & 0b11111111);
   962  000694  0EF5               	movlw	245
   963  000696  EC5A  F00A         	call	_OpenTimer1
   964                           
   965                           ;main.c: 291: IPR1bits.TMR1IP = 0;
   966  00069A  909F               	bcf	3999,0,c	;volatile
   967                           
   968                           ;main.c: 293: IPR1bits.RCIP = 0;
   969  00069C  9A9F               	bcf	3999,5,c	;volatile
   970                           
   971                           ;main.c: 295: IPR1bits.SSPIP = 1;
   972  00069E  869F               	bsf	3999,3,c	;volatile
   973                           
   974                           ;main.c: 297: IPR1bits.ADIP = 1;
   975  0006A0  8C9F               	bsf	3999,6,c	;volatile
   976                           
   977                           ;main.c: 307: i2c_configure_slave(0x9E);
   978  0006A2  0E9E               	movlw	158
   979  0006A4  EC0B  F00B         	call	_i2c_configure_slave
   980                           
   981                           ;main.c: 322: PIE1bits.SSPIE = 1;
   982  0006A8  869D               	bsf	3997,3,c	;volatile
   983                           
   984                           ;main.c: 323: PIE1bits.RCIE = 1;
   985  0006AA  8A9D               	bsf	3997,5,c	;volatile
   986                           
   987                           ;main.c: 334: OpenUSART(0b01111111 & 0b11111111 & 0b11111110 & 0b11111101 &
   988                           ;main.c: 335: 0b11111111 & 0b11101111, 0x19);
   989  0006AC  0E00               	movlw	0
   990  0006AE  0100               	movlb	0	; () banked
   991  0006B0  0100               	movlb	0	; () banked
   992  0006B2  6FB4               	movwf	(OpenUSART@spbrg+1)& (0+255),b
   993  0006B4  0E19               	movlw	25
   994  0006B6  0100               	movlb	0	; () banked
   995  0006B8  6FB3               	movwf	OpenUSART@spbrg& (0+255),b
   996  0006BA  0E6C               	movlw	108
   997  0006BC  ECB1  F006         	call	_OpenUSART
   998                           
   999                           ;main.c: 340: bufferFlag = 0x0;
  1000  0006C0  0E00               	movlw	0
  1001  0006C2  6E25               	movwf	_bufferFlag+1,c
  1002  0006C4  0E00               	movlw	0
  1003  0006C6  6E24               	movwf	_bufferFlag,c
  1004                           
  1005                           ;main.c: 343: enable_interrupts();
  1006  0006C8  ECA7  F00B         	call	_enable_interrupts	;wreg free
  1007  0006CC                     l3155:
  1008                           
  1009                           ;main.c: 367: block_on_To_msgqueues();
  1010  0006CC  ECC6  F007         	call	_block_on_To_msgqueues	;wreg free
  1011                           
  1012                           ;main.c: 374: length = ToMainHigh_recvmsg(10, &msgtype, (void *) msgbuffer);
  1013  0006D0  0102               	movlb	2	; () banked
  1014  0006D2  0E02               	movlw	high main@msgtype
  1015  0006D4  0101               	movlb	1	; () banked
  1016  0006D6  0101               	movlb	1	; () banked
  1017  0006D8  6FEB               	movwf	(ToMainHigh_recvmsg@msgtype+1)& (0+255),b
  1018  0006DA  0102               	movlb	2	; () banked
  1019  0006DC  0E11               	movlw	low main@msgtype
  1020  0006DE  0101               	movlb	1	; () banked
  1021  0006E0  0101               	movlb	1	; () banked
  1022  0006E2  6FEA               	movwf	ToMainHigh_recvmsg@msgtype& (0+255),b
  1023  0006E4  0102               	movlb	2	; () banked
  1024  0006E6  0E02               	movlw	high main@msgbuffer
  1025  0006E8  0101               	movlb	1	; () banked
  1026  0006EA  0101               	movlb	1	; () banked
  1027  0006EC  6FED               	movwf	(ToMainHigh_recvmsg@data+1)& (0+255),b
  1028  0006EE  0102               	movlb	2	; () banked
  1029  0006F0  0E00               	movlw	low main@msgbuffer
  1030  0006F2  0101               	movlb	1	; () banked
  1031  0006F4  0101               	movlb	1	; () banked
  1032  0006F6  6FEC               	movwf	ToMainHigh_recvmsg@data& (0+255),b
  1033  0006F8  0E0A               	movlw	10
  1034  0006FA  ECF8  F009         	call	_ToMainHigh_recvmsg
  1035  0006FE  0102               	movlb	2	; () banked
  1036  000700  0102               	movlb	2	; () banked
  1037  000702  6F0B               	movwf	main@length& (0+255),b
  1038                           
  1039                           ; BSR set to: 2
  1040                           ;main.c: 440: length = ToMainLow_recvmsg(10, &msgtype, (void *) msgbuffer);
  1041  000704  0102               	movlb	2	; () banked
  1042  000706  0E02               	movlw	high main@msgtype
  1043  000708  0101               	movlb	1	; () banked
  1044  00070A  0101               	movlb	1	; () banked
  1045  00070C  6FEB               	movwf	(ToMainLow_recvmsg@msgtype+1)& (0+255),b
  1046  00070E  0102               	movlb	2	; () banked
  1047  000710  0E11               	movlw	low main@msgtype
  1048  000712  0101               	movlb	1	; () banked
  1049  000714  0101               	movlb	1	; () banked
  1050  000716  6FEA               	movwf	ToMainLow_recvmsg@msgtype& (0+255),b
  1051  000718  0102               	movlb	2	; () banked
  1052  00071A  0E02               	movlw	high main@msgbuffer
  1053  00071C  0101               	movlb	1	; () banked
  1054  00071E  0101               	movlb	1	; () banked
  1055  000720  6FED               	movwf	(ToMainLow_recvmsg@data+1)& (0+255),b
  1056  000722  0102               	movlb	2	; () banked
  1057  000724  0E00               	movlw	low main@msgbuffer
  1058  000726  0101               	movlb	1	; () banked
  1059  000728  0101               	movlb	1	; () banked
  1060  00072A  6FEC               	movwf	ToMainLow_recvmsg@data& (0+255),b
  1061  00072C  0E0A               	movlw	10
  1062  00072E  ECD7  F009         	call	_ToMainLow_recvmsg
  1063  000732  0102               	movlb	2	; () banked
  1064  000734  0102               	movlb	2	; () banked
  1065  000736  6F0B               	movwf	main@length& (0+255),b
  1066  000738  D7C9               	goto	l3155
  1067  00073A                     __end_of_main:
  1068                           	opt stack 0
  1069                           tblptru	equ	0xFF8
  1070                           postinc0	equ	0xFEE
  1071                           wreg	equ	0xFE8
  1072                           
  1073 ;; *************** function _init_uart_recv *****************
  1074 ;; Defined at:
  1075 ;;		line 49 in file "../src/my_uart.c"
  1076 ;; Parameters:    Size  Location     Type
  1077 ;;  uc              2   51[BANK0 ] PTR struct __uart_comm
  1078 ;;		 -> main@uc(5), 
  1079 ;; Auto vars:     Size  Location     Type
  1080 ;;		None
  1081 ;; Return value:  Size  Location     Type
  1082 ;;		None               void
  1083 ;; Registers used:
  1084 ;;		wreg, fsr2l, fsr2h, status,2, status,0
  1085 ;; Tracked objects:
  1086 ;;		On entry : 0/0
  1087 ;;		On exit  : 0/0
  1088 ;;		Unchanged: 0/0
  1089 ;; Data sizes:     COMRAM   BANK0   BANK1   BANK2   BANK3
  1090 ;;      Params:         0       2       0       0       0
  1091 ;;      Locals:         0       0       0       0       0
  1092 ;;      Temps:          0       0       0       0       0
  1093 ;;      Totals:         0       2       0       0       0
  1094 ;;Total ram usage:        2 bytes
  1095 ;; Hardware stack levels used:    1
  1096 ;; Hardware stack levels required when called:   10
  1097 ;; This function calls:
  1098 ;;		Nothing
  1099 ;; This function is called by:
  1100 ;;		_main
  1101 ;; This function uses a non-reentrant model
  1102 ;;
  1103                           
  1104                           	psect	text1
  1105  001684                     __ptext1:
  1106                           	opt stack 0
  1107  001684                     _init_uart_recv:
  1108                           	opt stack 19
  1109                           
  1110                           ;my_uart.c: 50: uc_ptr = uc;
  1111                           
  1112                           ; BSR set to: 2
  1113                           ;incstack = 0
  1114  001684  0100               	movlb	0	; () banked
  1115  001686  C0B4  F061         	movff	init_uart_recv@uc+1,_uc_ptr+1
  1116  00168A  0100               	movlb	0	; () banked
  1117  00168C  C0B3  F060         	movff	init_uart_recv@uc,_uc_ptr
  1118                           
  1119                           ; BSR set to: 0
  1120                           ;my_uart.c: 51: uc_ptr->buflen = 0;
  1121  001690  EE20 F004          	lfsr	2,4
  1122  001694  5060               	movf	_uc_ptr,w,c
  1123  001696  26D9               	addwf	fsr2l,f,c
  1124  001698  5061               	movf	_uc_ptr+1,w,c
  1125  00169A  22DA               	addwfc	fsr2h,f,c
  1126  00169C  0E00               	movlw	0
  1127  00169E  6EDF               	movwf	indf2,c
  1128                           
  1129                           ; BSR set to: 0
  1130  0016A0  0012               	return	
  1131  0016A2                     __end_of_init_uart_recv:
  1132                           	opt stack 0
  1133                           tblptru	equ	0xFF8
  1134                           postinc0	equ	0xFEE
  1135                           wreg	equ	0xFE8
  1136                           indf2	equ	0xFDF
  1137                           fsr2h	equ	0xFDA
  1138                           fsr2l	equ	0xFD9
  1139                           
  1140 ;; *************** function _init_timer1_lthread *****************
  1141 ;; Defined at:
  1142 ;;		line 6 in file "../src/timer1_thread.c"
  1143 ;; Parameters:    Size  Location     Type
  1144 ;;  tptr            2   51[BANK0 ] PTR struct __timer1_thre
  1145 ;;		 -> main@t1thread_data(2), 
  1146 ;; Auto vars:     Size  Location     Type
  1147 ;;		None
  1148 ;; Return value:  Size  Location     Type
  1149 ;;		None               void
  1150 ;; Registers used:
  1151 ;;		wreg, fsr2l, fsr2h
  1152 ;; Tracked objects:
  1153 ;;		On entry : 0/0
  1154 ;;		On exit  : 0/0
  1155 ;;		Unchanged: 0/0
  1156 ;; Data sizes:     COMRAM   BANK0   BANK1   BANK2   BANK3
  1157 ;;      Params:         0       2       0       0       0
  1158 ;;      Locals:         0       0       0       0       0
  1159 ;;      Temps:          0       0       0       0       0
  1160 ;;      Totals:         0       2       0       0       0
  1161 ;;Total ram usage:        2 bytes
  1162 ;; Hardware stack levels used:    1
  1163 ;; Hardware stack levels required when called:   10
  1164 ;; This function calls:
  1165 ;;		Nothing
  1166 ;; This function is called by:
  1167 ;;		_main
  1168 ;; This function uses a non-reentrant model
  1169 ;;
  1170                           
  1171                           	psect	text2
  1172  0016D6                     __ptext2:
  1173                           	opt stack 0
  1174  0016D6                     _init_timer1_lthread:
  1175                           	opt stack 19
  1176                           
  1177                           ;timer1_thread.c: 7: tptr->msgcount = 0;
  1178                           
  1179                           ; BSR set to: 0
  1180                           ;incstack = 0
  1181  0016D6  C0B3  FFD9         	movff	init_timer1_lthread@tptr,fsr2l
  1182  0016DA  C0B4  FFDA         	movff	init_timer1_lthread@tptr+1,fsr2h
  1183  0016DE  0E00               	movlw	0
  1184  0016E0  6EDE               	movwf	postinc2,c
  1185  0016E2  0E00               	movlw	0
  1186  0016E4  6EDD               	movwf	postdec2,c
  1187  0016E6  0012               	return	
  1188  0016E8                     __end_of_init_timer1_lthread:
  1189                           	opt stack 0
  1190                           tblptru	equ	0xFF8
  1191                           postinc0	equ	0xFEE
  1192                           wreg	equ	0xFE8
  1193                           indf2	equ	0xFDF
  1194                           postinc2	equ	0xFDE
  1195                           postdec2	equ	0xFDD
  1196                           fsr2h	equ	0xFDA
  1197                           fsr2l	equ	0xFD9
  1198                           
  1199 ;; *************** function _init_queues *****************
  1200 ;; Defined at:
  1201 ;;		line 194 in file "../src/messages.c"
  1202 ;; Parameters:    Size  Location     Type
  1203 ;;		None
  1204 ;; Auto vars:     Size  Location     Type
  1205 ;;		None
  1206 ;; Return value:  Size  Location     Type
  1207 ;;		None               void
  1208 ;; Registers used:
  1209 ;;		wreg, fsr2l, fsr2h, status,2, status,0, prodl, prodh, cstack
  1210 ;; Tracked objects:
  1211 ;;		On entry : 0/0
  1212 ;;		On exit  : 0/0
  1213 ;;		Unchanged: 0/0
  1214 ;; Data sizes:     COMRAM   BANK0   BANK1   BANK2   BANK3
  1215 ;;      Params:         0       0       0       0       0
  1216 ;;      Locals:         0       0       0       0       0
  1217 ;;      Temps:          0       1       0       0       0
  1218 ;;      Totals:         0       1       0       0       0
  1219 ;;Total ram usage:        1 bytes
  1220 ;; Hardware stack levels used:    1
  1221 ;; Hardware stack levels required when called:   11
  1222 ;; This function calls:
  1223 ;;		_init_queue
  1224 ;; This function is called by:
  1225 ;;		_main
  1226 ;; This function uses a non-reentrant model
  1227 ;;
  1228                           
  1229                           	psect	text3
  1230  0010FC                     __ptext3:
  1231                           	opt stack 0
  1232  0010FC                     _init_queues:
  1233                           	opt stack 18
  1234                           
  1235                           ;messages.c: 195: MQ_Main_Willing_to_block = 0;
  1236                           
  1237                           ;incstack = 0
  1238  0010FC  0100               	movlb	0	; () banked
  1239  0010FE  6FB7               	movwf	??_init_queues& (0+255),b
  1240  001100  0E00               	movlw	0
  1241  001102  6E2A               	movwf	_MQ_Main_Willing_to_block,c
  1242  001104  0100               	movlb	0	; () banked
  1243  001106  51B7               	movf	??_init_queues& (0+255),w,b
  1244                           
  1245                           ; BSR set to: 0
  1246                           ;messages.c: 196: init_queue(&ToMainLow_MQ);
  1247  001108  0101               	movlb	1	; () banked
  1248  00110A  0E01               	movlw	high _ToMainLow_MQ
  1249  00110C  0100               	movlb	0	; () banked
  1250  00110E  0100               	movlb	0	; () banked
  1251  001110  6FB4               	movwf	(init_queue@qptr+1)& (0+255),b
  1252  001112  0101               	movlb	1	; () banked
  1253  001114  0EA2               	movlw	low _ToMainLow_MQ
  1254  001116  0100               	movlb	0	; () banked
  1255  001118  0100               	movlb	0	; () banked
  1256  00111A  6FB3               	movwf	init_queue@qptr& (0+255),b
  1257  00111C  EC05  F008         	call	_init_queue	;wreg free
  1258                           
  1259                           ;messages.c: 197: init_queue(&ToMainHigh_MQ);
  1260  001120  0101               	movlb	1	; () banked
  1261  001122  0E01               	movlw	high _ToMainHigh_MQ
  1262  001124  0100               	movlb	0	; () banked
  1263  001126  0100               	movlb	0	; () banked
  1264  001128  6FB4               	movwf	(init_queue@qptr+1)& (0+255),b
  1265  00112A  0101               	movlb	1	; () banked
  1266  00112C  0E6C               	movlw	low _ToMainHigh_MQ
  1267  00112E  0100               	movlb	0	; () banked
  1268  001130  0100               	movlb	0	; () banked
  1269  001132  6FB3               	movwf	init_queue@qptr& (0+255),b
  1270  001134  EC05  F008         	call	_init_queue	;wreg free
  1271                           
  1272                           ;messages.c: 198: init_queue(&FromMainLow_MQ);
  1273  001138  0101               	movlb	1	; () banked
  1274  00113A  0E01               	movlw	high _FromMainLow_MQ
  1275  00113C  0100               	movlb	0	; () banked
  1276  00113E  0100               	movlb	0	; () banked
  1277  001140  6FB4               	movwf	(init_queue@qptr+1)& (0+255),b
  1278  001142  0101               	movlb	1	; () banked
  1279  001144  0E36               	movlw	low _FromMainLow_MQ
  1280  001146  0100               	movlb	0	; () banked
  1281  001148  0100               	movlb	0	; () banked
  1282  00114A  6FB3               	movwf	init_queue@qptr& (0+255),b
  1283  00114C  EC05  F008         	call	_init_queue	;wreg free
  1284                           
  1285                           ;messages.c: 199: init_queue(&FromMainHigh_MQ);
  1286  001150  0101               	movlb	1	; () banked
  1287  001152  0E01               	movlw	high _FromMainHigh_MQ
  1288  001154  0100               	movlb	0	; () banked
  1289  001156  0100               	movlb	0	; () banked
  1290  001158  6FB4               	movwf	(init_queue@qptr+1)& (0+255),b
  1291  00115A  0101               	movlb	1	; () banked
  1292  00115C  0E00               	movlw	low _FromMainHigh_MQ
  1293  00115E  0100               	movlb	0	; () banked
  1294  001160  0100               	movlb	0	; () banked
  1295  001162  6FB3               	movwf	init_queue@qptr& (0+255),b
  1296  001164  EC05  F008         	call	_init_queue	;wreg free
  1297  001168  0012               	return	
  1298  00116A                     __end_of_init_queues:
  1299                           	opt stack 0
  1300                           tblptru	equ	0xFF8
  1301                           postinc0	equ	0xFEE
  1302                           wreg	equ	0xFE8
  1303                           indf2	equ	0xFDF
  1304                           postinc2	equ	0xFDE
  1305                           postdec2	equ	0xFDD
  1306                           fsr2h	equ	0xFDA
  1307                           fsr2l	equ	0xFD9
  1308                           
  1309 ;; *************** function _init_queue *****************
  1310 ;; Defined at:
  1311 ;;		line 14 in file "../src/messages.c"
  1312 ;; Parameters:    Size  Location     Type
  1313 ;;  qptr            2   51[BANK0 ] PTR struct __msg_queue
  1314 ;;		 -> FromMainHigh_MQ(54), FromMainLow_MQ(54), ToMainHigh_MQ(54), ToMainLow_MQ(54), 
  1315 ;; Auto vars:     Size  Location     Type
  1316 ;;  i               1   54[BANK0 ] unsigned char 
  1317 ;; Return value:  Size  Location     Type
  1318 ;;		None               void
  1319 ;; Registers used:
  1320 ;;		wreg, fsr2l, fsr2h, status,2, status,0, prodl, prodh
  1321 ;; Tracked objects:
  1322 ;;		On entry : 0/0
  1323 ;;		On exit  : 0/0
  1324 ;;		Unchanged: 0/0
  1325 ;; Data sizes:     COMRAM   BANK0   BANK1   BANK2   BANK3
  1326 ;;      Params:         0       2       0       0       0
  1327 ;;      Locals:         0       1       0       0       0
  1328 ;;      Temps:          0       1       0       0       0
  1329 ;;      Totals:         0       4       0       0       0
  1330 ;;Total ram usage:        4 bytes
  1331 ;; Hardware stack levels used:    1
  1332 ;; Hardware stack levels required when called:   10
  1333 ;; This function calls:
  1334 ;;		Nothing
  1335 ;; This function is called by:
  1336 ;;		_init_queues
  1337 ;; This function uses a non-reentrant model
  1338 ;;
  1339                           
  1340                           	psect	text4
  1341  00100A                     __ptext4:
  1342                           	opt stack 0
  1343  00100A                     _init_queue:
  1344                           	opt stack 18
  1345                           
  1346                           ;messages.c: 15: unsigned char i;
  1347                           ;messages.c: 17: qptr->cur_write_ind = 0;
  1348                           
  1349                           ;incstack = 0
  1350  00100A  0100               	movlb	0	; () banked
  1351  00100C  EE20 F034          	lfsr	2,52
  1352  001010  0100               	movlb	0	; () banked
  1353  001012  51B3               	movf	init_queue@qptr& (0+255),w,b
  1354  001014  26D9               	addwf	fsr2l,f,c
  1355  001016  0100               	movlb	0	; () banked
  1356  001018  51B4               	movf	(init_queue@qptr+1)& (0+255),w,b
  1357  00101A  22DA               	addwfc	fsr2h,f,c
  1358  00101C  0E00               	movlw	0
  1359  00101E  6EDF               	movwf	indf2,c
  1360                           
  1361                           ;messages.c: 18: qptr->cur_read_ind = 0;
  1362  001020  0100               	movlb	0	; () banked
  1363  001022  EE20 F035          	lfsr	2,53
  1364  001026  0100               	movlb	0	; () banked
  1365  001028  51B3               	movf	init_queue@qptr& (0+255),w,b
  1366  00102A  26D9               	addwf	fsr2l,f,c
  1367  00102C  0100               	movlb	0	; () banked
  1368  00102E  51B4               	movf	(init_queue@qptr+1)& (0+255),w,b
  1369  001030  22DA               	addwfc	fsr2h,f,c
  1370  001032  0E00               	movlw	0
  1371  001034  6EDF               	movwf	indf2,c
  1372                           
  1373                           ; BSR set to: 0
  1374                           ;messages.c: 19: for (i = 0; i < 4; i++) {
  1375  001036  0100               	movlb	0	; () banked
  1376  001038  6FB5               	movwf	??_init_queue& (0+255),b
  1377  00103A  0E00               	movlw	0
  1378  00103C  0100               	movlb	0	; () banked
  1379  00103E  0100               	movlb	0	; () banked
  1380  001040  6FB6               	movwf	init_queue@i& (0+255),b
  1381  001042  0100               	movlb	0	; () banked
  1382  001044  51B5               	movf	??_init_queue& (0+255),w,b
  1383                           
  1384                           ; BSR set to: 0
  1385  001046  0E03               	movlw	3
  1386  001048  0100               	movlb	0	; () banked
  1387  00104A  0100               	movlb	0	; () banked
  1388  00104C  65B6               	cpfsgt	init_queue@i& (0+255),b
  1389  00104E  D001               	goto	l3335
  1390  001050  0012               	return	
  1391  001052                     l3335:
  1392                           
  1393                           ; BSR set to: 0
  1394                           ;messages.c: 20: qptr->queue[i].full = 0;
  1395  001052  0100               	movlb	0	; () banked
  1396  001054  0100               	movlb	0	; () banked
  1397  001056  51B6               	movf	init_queue@i& (0+255),w,b
  1398  001058  0D0D               	mullw	13
  1399  00105A  50F3               	movf	prodl,w,c
  1400  00105C  0100               	movlb	0	; () banked
  1401  00105E  0100               	movlb	0	; () banked
  1402  001060  25B3               	addwf	init_queue@qptr& (0+255),w,b
  1403  001062  6ED9               	movwf	fsr2l,c
  1404  001064  50F4               	movf	prodh,w,c
  1405  001066  0100               	movlb	0	; () banked
  1406  001068  0100               	movlb	0	; () banked
  1407  00106A  21B4               	addwfc	(init_queue@qptr+1)& (0+255),w,b
  1408  00106C  6EDA               	movwf	fsr2h,c
  1409  00106E  0E00               	movlw	0
  1410  001070  6EDF               	movwf	indf2,c
  1411                           
  1412                           ; BSR set to: 0
  1413  001072  0100               	movlb	0	; () banked
  1414  001074  0100               	movlb	0	; () banked
  1415  001076  2BB6               	incf	init_queue@i& (0+255),f,b
  1416                           
  1417                           ; BSR set to: 0
  1418  001078  0E03               	movlw	3
  1419  00107A  0100               	movlb	0	; () banked
  1420  00107C  0100               	movlb	0	; () banked
  1421  00107E  65B6               	cpfsgt	init_queue@i& (0+255),b
  1422  001080  D7E8               	goto	l3335
  1423  001082  0012               	return	
  1424  001084                     __end_of_init_queue:
  1425                           	opt stack 0
  1426                           tblptru	equ	0xFF8
  1427                           prodh	equ	0xFF4
  1428                           prodl	equ	0xFF3
  1429                           postinc0	equ	0xFEE
  1430                           wreg	equ	0xFE8
  1431                           indf2	equ	0xFDF
  1432                           postinc2	equ	0xFDE
  1433                           postdec2	equ	0xFDD
  1434                           fsr2h	equ	0xFDA
  1435                           fsr2l	equ	0xFD9
  1436                           
  1437 ;; *************** function _init_i2c *****************
  1438 ;; Defined at:
  1439 ;;		line 247 in file "../src/my_i2c.c"
  1440 ;; Parameters:    Size  Location     Type
  1441 ;;  ic              2   51[BANK0 ] PTR struct __i2c_comm
  1442 ;;		 -> main@ic(28), 
  1443 ;; Auto vars:     Size  Location     Type
  1444 ;;		None
  1445 ;; Return value:  Size  Location     Type
  1446 ;;		None               void
  1447 ;; Registers used:
  1448 ;;		wreg, fsr2l, fsr2h, status,2, status,0
  1449 ;; Tracked objects:
  1450 ;;		On entry : 0/0
  1451 ;;		On exit  : 0/0
  1452 ;;		Unchanged: 0/0
  1453 ;; Data sizes:     COMRAM   BANK0   BANK1   BANK2   BANK3
  1454 ;;      Params:         0       2       0       0       0
  1455 ;;      Locals:         0       0       0       0       0
  1456 ;;      Temps:          0       0       0       0       0
  1457 ;;      Totals:         0       2       0       0       0
  1458 ;;Total ram usage:        2 bytes
  1459 ;; Hardware stack levels used:    1
  1460 ;; Hardware stack levels required when called:   10
  1461 ;; This function calls:
  1462 ;;		Nothing
  1463 ;; This function is called by:
  1464 ;;		_main
  1465 ;; This function uses a non-reentrant model
  1466 ;;
  1467                           
  1468                           	psect	text5
  1469  001290                     __ptext5:
  1470                           	opt stack 0
  1471  001290                     _init_i2c:
  1472                           	opt stack 19
  1473                           
  1474                           ;my_i2c.c: 248: ic_ptr = ic;
  1475                           
  1476                           ; BSR set to: 0
  1477                           ;incstack = 0
  1478  001290  0100               	movlb	0	; () banked
  1479  001292  C0B4  F05F         	movff	init_i2c@ic+1,_ic_ptr+1
  1480  001296  0100               	movlb	0	; () banked
  1481  001298  C0B3  F05E         	movff	init_i2c@ic,_ic_ptr
  1482                           
  1483                           ; BSR set to: 0
  1484                           ;my_i2c.c: 249: ic_ptr->buflen = 0;
  1485  00129C  EE20 F00A          	lfsr	2,10
  1486  0012A0  505E               	movf	_ic_ptr,w,c
  1487  0012A2  26D9               	addwf	fsr2l,f,c
  1488  0012A4  505F               	movf	_ic_ptr+1,w,c
  1489  0012A6  22DA               	addwfc	fsr2h,f,c
  1490  0012A8  0E00               	movlw	0
  1491  0012AA  6EDF               	movwf	indf2,c
  1492                           
  1493                           ; BSR set to: 0
  1494                           ;my_i2c.c: 250: ic_ptr->event_count = 0;
  1495  0012AC  EE20 F00B          	lfsr	2,11
  1496  0012B0  505E               	movf	_ic_ptr,w,c
  1497  0012B2  26D9               	addwf	fsr2l,f,c
  1498  0012B4  505F               	movf	_ic_ptr+1,w,c
  1499  0012B6  22DA               	addwfc	fsr2h,f,c
  1500  0012B8  0E00               	movlw	0
  1501  0012BA  6EDF               	movwf	indf2,c
  1502                           
  1503                           ; BSR set to: 0
  1504                           ;my_i2c.c: 251: ic_ptr->status = 0x5;
  1505  0012BC  EE20 F00C          	lfsr	2,12
  1506  0012C0  505E               	movf	_ic_ptr,w,c
  1507  0012C2  26D9               	addwf	fsr2l,f,c
  1508  0012C4  505F               	movf	_ic_ptr+1,w,c
  1509  0012C6  22DA               	addwfc	fsr2h,f,c
  1510  0012C8  0E05               	movlw	5
  1511  0012CA  6EDF               	movwf	indf2,c
  1512                           
  1513                           ; BSR set to: 0
  1514                           ;my_i2c.c: 252: ic_ptr->error_count = 0;
  1515  0012CC  EE20 F00E          	lfsr	2,14
  1516  0012D0  505E               	movf	_ic_ptr,w,c
  1517  0012D2  26D9               	addwf	fsr2l,f,c
  1518  0012D4  505F               	movf	_ic_ptr+1,w,c
  1519  0012D6  22DA               	addwfc	fsr2h,f,c
  1520  0012D8  0E00               	movlw	0
  1521  0012DA  6EDF               	movwf	indf2,c
  1522                           
  1523                           ; BSR set to: 0
  1524  0012DC  0012               	return	
  1525  0012DE                     __end_of_init_i2c:
  1526                           	opt stack 0
  1527                           tblptru	equ	0xFF8
  1528                           prodh	equ	0xFF4
  1529                           prodl	equ	0xFF3
  1530                           postinc0	equ	0xFEE
  1531                           wreg	equ	0xFE8
  1532                           indf2	equ	0xFDF
  1533                           postinc2	equ	0xFDE
  1534                           postdec2	equ	0xFDD
  1535                           fsr2h	equ	0xFDA
  1536                           fsr2l	equ	0xFD9
  1537                           
  1538 ;; *************** function _i2c_configure_slave *****************
  1539 ;; Defined at:
  1540 ;;		line 258 in file "../src/my_i2c.c"
  1541 ;; Parameters:    Size  Location     Type
  1542 ;;  addr            1    wreg     unsigned char 
  1543 ;; Auto vars:     Size  Location     Type
  1544 ;;  addr            1   51[BANK0 ] unsigned char 
  1545 ;; Return value:  Size  Location     Type
  1546 ;;		None               void
  1547 ;; Registers used:
  1548 ;;		wreg, status,2, status,0
  1549 ;; Tracked objects:
  1550 ;;		On entry : 0/0
  1551 ;;		On exit  : 0/0
  1552 ;;		Unchanged: 0/0
  1553 ;; Data sizes:     COMRAM   BANK0   BANK1   BANK2   BANK3
  1554 ;;      Params:         0       0       0       0       0
  1555 ;;      Locals:         0       1       0       0       0
  1556 ;;      Temps:          0       0       0       0       0
  1557 ;;      Totals:         0       1       0       0       0
  1558 ;;Total ram usage:        1 bytes
  1559 ;; Hardware stack levels used:    1
  1560 ;; Hardware stack levels required when called:   10
  1561 ;; This function calls:
  1562 ;;		Nothing
  1563 ;; This function is called by:
  1564 ;;		_main
  1565 ;; This function uses a non-reentrant model
  1566 ;;
  1567                           
  1568                           	psect	text6
  1569  001616                     __ptext6:
  1570                           	opt stack 0
  1571  001616                     _i2c_configure_slave:
  1572                           	opt stack 19
  1573                           
  1574                           ; BSR set to: 0
  1575                           ;incstack = 0
  1576                           ;i2c_configure_slave@addr stored from wreg
  1577  001616  CFE8 F0B3          	movff	wreg,i2c_configure_slave@addr
  1578                           
  1579                           ;my_i2c.c: 270: TRISCbits.TRISC3 = 1;
  1580  00161A  8694               	bsf	3988,3,c	;volatile
  1581                           
  1582                           ;my_i2c.c: 271: TRISCbits.TRISC4 = 1;
  1583  00161C  8894               	bsf	3988,4,c	;volatile
  1584                           
  1585                           ;my_i2c.c: 276: SSPADD = addr;
  1586  00161E  C0B3  FFC8         	movff	i2c_configure_slave@addr,4040	;volatile
  1587                           
  1588                           ;my_i2c.c: 278: SSPSTAT = 0x0;
  1589  001622  0E00               	movlw	0
  1590  001624  6EC7               	movwf	4039,c	;volatile
  1591                           
  1592                           ;my_i2c.c: 279: SSPCON1 = 0x0;
  1593  001626  0E00               	movlw	0
  1594  001628  6EC6               	movwf	4038,c	;volatile
  1595                           
  1596                           ;my_i2c.c: 280: SSPCON2 = 0x0;
  1597  00162A  0E00               	movlw	0
  1598  00162C  6EC5               	movwf	4037,c	;volatile
  1599                           
  1600                           ;my_i2c.c: 281: SSPCON1 |= 0x0E;
  1601  00162E  0E0E               	movlw	14
  1602  001630  12C6               	iorwf	4038,f,c	;volatile
  1603                           
  1604                           ;my_i2c.c: 282: SSPSTAT |= 0b10000000;
  1605  001632  8EC7               	bsf	4039,7,c	;volatile
  1606                           
  1607                           ;my_i2c.c: 285: TRISCbits.TRISC3 = 1;
  1608  001634  8694               	bsf	3988,3,c	;volatile
  1609                           
  1610                           ;my_i2c.c: 286: TRISCbits.TRISC4 = 1;
  1611  001636  8894               	bsf	3988,4,c	;volatile
  1612                           
  1613                           ;my_i2c.c: 307: SSPCON2bits.SEN = 1;
  1614  001638  80C5               	bsf	4037,0,c	;volatile
  1615                           
  1616                           ;my_i2c.c: 308: SSPCON1 |= 0b00100000;
  1617  00163A  8AC6               	bsf	4038,5,c	;volatile
  1618  00163C  0012               	return	
  1619  00163E                     __end_of_i2c_configure_slave:
  1620                           	opt stack 0
  1621                           tblptru	equ	0xFF8
  1622                           prodh	equ	0xFF4
  1623                           prodl	equ	0xFF3
  1624                           postinc0	equ	0xFEE
  1625                           wreg	equ	0xFE8
  1626                           indf2	equ	0xFDF
  1627                           postinc2	equ	0xFDE
  1628                           postdec2	equ	0xFDD
  1629                           fsr2h	equ	0xFDA
  1630                           fsr2l	equ	0xFD9
  1631                           
  1632 ;; *************** function _enable_interrupts *****************
  1633 ;; Defined at:
  1634 ;;		line 15 in file "../src/interrupts.c"
  1635 ;; Parameters:    Size  Location     Type
  1636 ;;		None
  1637 ;; Auto vars:     Size  Location     Type
  1638 ;;		None
  1639 ;; Return value:  Size  Location     Type
  1640 ;;		None               void
  1641 ;; Registers used:
  1642 ;;		None
  1643 ;; Tracked objects:
  1644 ;;		On entry : 0/0
  1645 ;;		On exit  : 0/0
  1646 ;;		Unchanged: 0/0
  1647 ;; Data sizes:     COMRAM   BANK0   BANK1   BANK2   BANK3
  1648 ;;      Params:         0       0       0       0       0
  1649 ;;      Locals:         0       0       0       0       0
  1650 ;;      Temps:          0       0       0       0       0
  1651 ;;      Totals:         0       0       0       0       0
  1652 ;;Total ram usage:        0 bytes
  1653 ;; Hardware stack levels used:    1
  1654 ;; Hardware stack levels required when called:   10
  1655 ;; This function calls:
  1656 ;;		Nothing
  1657 ;; This function is called by:
  1658 ;;		_main
  1659 ;; This function uses a non-reentrant model
  1660 ;;
  1661                           
  1662                           	psect	text7
  1663  00174E                     __ptext7:
  1664                           	opt stack 0
  1665  00174E                     _enable_interrupts:
  1666                           	opt stack 19
  1667                           
  1668                           ;interrupts.c: 18: RCONbits.IPEN = 1;
  1669                           
  1670                           ;incstack = 0
  1671  00174E  8ED0               	bsf	4048,7,c	;volatile
  1672                           
  1673                           ;interrupts.c: 19: INTCONbits.GIEH = 1;
  1674  001750  8EF2               	bsf	intcon,7,c	;volatile
  1675                           
  1676                           ;interrupts.c: 20: INTCONbits.GIEL = 1;
  1677  001752  8CF2               	bsf	intcon,6,c	;volatile
  1678  001754  0012               	return	
  1679  001756                     __end_of_enable_interrupts:
  1680                           	opt stack 0
  1681                           tblptru	equ	0xFF8
  1682                           prodh	equ	0xFF4
  1683                           prodl	equ	0xFF3
  1684                           intcon	equ	0xFF2
  1685                           postinc0	equ	0xFEE
  1686                           wreg	equ	0xFE8
  1687                           indf2	equ	0xFDF
  1688                           postinc2	equ	0xFDE
  1689                           postdec2	equ	0xFDD
  1690                           fsr2h	equ	0xFDA
  1691                           fsr2l	equ	0xFD9
  1692                           
  1693 ;; *************** function _block_on_To_msgqueues *****************
  1694 ;; Defined at:
  1695 ;;		line 258 in file "../src/messages.c"
  1696 ;; Parameters:    Size  Location     Type
  1697 ;;		None
  1698 ;; Auto vars:     Size  Location     Type
  1699 ;;		None
  1700 ;; Return value:  Size  Location     Type
  1701 ;;		None               void
  1702 ;; Registers used:
  1703 ;;		wreg, fsr2l, fsr2h, status,2, status,0, prodl, prodh, cstack
  1704 ;; Tracked objects:
  1705 ;;		On entry : 0/0
  1706 ;;		On exit  : 0/0
  1707 ;;		Unchanged: 0/0
  1708 ;; Data sizes:     COMRAM   BANK0   BANK1   BANK2   BANK3
  1709 ;;      Params:         0       0       0       0       0
  1710 ;;      Locals:         0       0       0       0       0
  1711 ;;      Temps:          0       0       1       0       0
  1712 ;;      Totals:         0       0       1       0       0
  1713 ;;Total ram usage:        1 bytes
  1714 ;; Hardware stack levels used:    1
  1715 ;; Hardware stack levels required when called:   13
  1716 ;; This function calls:
  1717 ;;		_Delay1KTCYx
  1718 ;;		_check_msg
  1719 ;;		_in_main
  1720 ;; This function is called by:
  1721 ;;		_main
  1722 ;; This function uses a non-reentrant model
  1723 ;;
  1724                           
  1725                           	psect	text8
  1726  000F8C                     __ptext8:
  1727                           	opt stack 0
  1728  000F8C                     _block_on_To_msgqueues:
  1729                           	opt stack 16
  1730                           
  1731                           ;messages.c: 259: if (!in_main()) {
  1732                           
  1733                           ;incstack = 0
  1734  000F8C  ECB5  F009         	call	_in_main	;wreg free
  1735  000F90  0100               	movlb	0	; () banked
  1736  000F92  0100               	movlb	0	; () banked
  1737  000F94  51B8               	movf	(?_in_main+1)& (0+255),w,b
  1738  000F96  0100               	movlb	0	; () banked
  1739  000F98  11B7               	iorwf	?_in_main& (0+255),w,b
  1740  000F9A  B4D8               	btfsc	status,2,c
  1741  000F9C  0012               	return	
  1742                           
  1743                           ; BSR set to: 0
  1744                           ;messages.c: 261: }
  1745                           ;messages.c: 263: MQ_Main_Willing_to_block = 1;
  1746                           
  1747                           ; BSR set to: 0
  1748                           
  1749                           ; BSR set to: 0
  1750                           ;messages.c: 260: return;
  1751  000F9E  0101               	movlb	1	; () banked
  1752  000FA0  6FD8               	movwf	??_block_on_To_msgqueues& (0+255),b
  1753  000FA2  0E01               	movlw	1
  1754  000FA4  6E2A               	movwf	_MQ_Main_Willing_to_block,c
  1755  000FA6  0101               	movlb	1	; () banked
  1756  000FA8  51D8               	movf	??_block_on_To_msgqueues& (0+255),w,b
  1757  000FAA                     l3305:
  1758                           
  1759                           ;messages.c: 265: if (check_msg(&ToMainHigh_MQ)) {
  1760  000FAA  0101               	movlb	1	; () banked
  1761  000FAC  0E01               	movlw	high _ToMainHigh_MQ
  1762  000FAE  0100               	movlb	0	; () banked
  1763  000FB0  0100               	movlb	0	; () banked
  1764  000FB2  6FB4               	movwf	(check_msg@qptr+1)& (0+255),b
  1765  000FB4  0101               	movlb	1	; () banked
  1766  000FB6  0E6C               	movlw	low _ToMainHigh_MQ
  1767  000FB8  0100               	movlb	0	; () banked
  1768  000FBA  0100               	movlb	0	; () banked
  1769  000FBC  6FB3               	movwf	check_msg@qptr& (0+255),b
  1770  000FBE  EC76  F00A         	call	_check_msg	;wreg free
  1771  000FC2  0900               	iorlw	0
  1772  000FC4  B4D8               	btfsc	status,2,c
  1773  000FC6  D007               	goto	l3311
  1774                           
  1775                           ;messages.c: 266: MQ_Main_Willing_to_block = 0;
  1776  000FC8  0101               	movlb	1	; () banked
  1777  000FCA  6FD8               	movwf	??_block_on_To_msgqueues& (0+255),b
  1778  000FCC  0E00               	movlw	0
  1779  000FCE  6E2A               	movwf	_MQ_Main_Willing_to_block,c
  1780  000FD0  0101               	movlb	1	; () banked
  1781  000FD2  51D8               	movf	??_block_on_To_msgqueues& (0+255),w,b
  1782  000FD4  0012               	return	
  1783  000FD6                     l3311:
  1784                           
  1785                           ;messages.c: 271: }
  1786                           ;messages.c: 272: if (check_msg(&ToMainLow_MQ)) {
  1787  000FD6  0101               	movlb	1	; () banked
  1788  000FD8  0E01               	movlw	high _ToMainLow_MQ
  1789  000FDA  0100               	movlb	0	; () banked
  1790  000FDC  0100               	movlb	0	; () banked
  1791  000FDE  6FB4               	movwf	(check_msg@qptr+1)& (0+255),b
  1792  000FE0  0101               	movlb	1	; () banked
  1793  000FE2  0EA2               	movlw	low _ToMainLow_MQ
  1794  000FE4  0100               	movlb	0	; () banked
  1795  000FE6  0100               	movlb	0	; () banked
  1796  000FE8  6FB3               	movwf	check_msg@qptr& (0+255),b
  1797  000FEA  EC76  F00A         	call	_check_msg	;wreg free
  1798  000FEE  0900               	iorlw	0
  1799  000FF0  B4D8               	btfsc	status,2,c
  1800  000FF2  D007               	goto	l3317
  1801                           
  1802                           ;messages.c: 273: MQ_Main_Willing_to_block = 0;
  1803  000FF4  0101               	movlb	1	; () banked
  1804  000FF6  6FD8               	movwf	??_block_on_To_msgqueues& (0+255),b
  1805  000FF8  0E00               	movlw	0
  1806  000FFA  6E2A               	movwf	_MQ_Main_Willing_to_block,c
  1807  000FFC  0101               	movlb	1	; () banked
  1808  000FFE  51D8               	movf	??_block_on_To_msgqueues& (0+255),w,b
  1809  001000  0012               	return	
  1810  001002                     l3317:
  1811                           
  1812                           ;messages.c: 278: }
  1813                           ;messages.c: 279: Delay1KTCYx(10);
  1814  001002  0E0A               	movlw	10
  1815  001004  EC60  F00B         	call	_Delay1KTCYx
  1816  001008  D7D0               	goto	l3305
  1817  00100A                     __end_of_block_on_To_msgqueues:
  1818                           	opt stack 0
  1819                           tblptru	equ	0xFF8
  1820                           prodh	equ	0xFF4
  1821                           prodl	equ	0xFF3
  1822                           intcon	equ	0xFF2
  1823                           postinc0	equ	0xFEE
  1824                           wreg	equ	0xFE8
  1825                           indf2	equ	0xFDF
  1826                           postinc2	equ	0xFDE
  1827                           postdec2	equ	0xFDD
  1828                           fsr2h	equ	0xFDA
  1829                           fsr2l	equ	0xFD9
  1830                           status	equ	0xFD8
  1831                           
  1832 ;; *************** function _in_main *****************
  1833 ;; Defined at:
  1834 ;;		line 43 in file "../src/interrupts.c"
  1835 ;; Parameters:    Size  Location     Type
  1836 ;;		None
  1837 ;; Auto vars:     Size  Location     Type
  1838 ;;		None
  1839 ;; Return value:  Size  Location     Type
  1840 ;;                  2   55[BANK0 ] int 
  1841 ;; Registers used:
  1842 ;;		wreg, status,2, status,0, cstack
  1843 ;; Tracked objects:
  1844 ;;		On entry : 0/0
  1845 ;;		On exit  : 0/0
  1846 ;;		Unchanged: 0/0
  1847 ;; Data sizes:     COMRAM   BANK0   BANK1   BANK2   BANK3
  1848 ;;      Params:         0       2       0       0       0
  1849 ;;      Locals:         0       0       0       0       0
  1850 ;;      Temps:          0       0       0       0       0
  1851 ;;      Totals:         0       2       0       0       0
  1852 ;;Total ram usage:        2 bytes
  1853 ;; Hardware stack levels used:    1
  1854 ;; Hardware stack levels required when called:   12
  1855 ;; This function calls:
  1856 ;;		_in_high_int
  1857 ;;		_in_low_int
  1858 ;; This function is called by:
  1859 ;;		_block_on_To_msgqueues
  1860 ;; This function uses a non-reentrant model
  1861 ;;
  1862                           
  1863                           	psect	text9
  1864  00136A                     __ptext9:
  1865                           	opt stack 0
  1866  00136A                     _in_main:
  1867                           	opt stack 16
  1868                           
  1869                           ;interrupts.c: 44: if ((!in_low_int()) && (!in_high_int())) {
  1870                           
  1871                           ;incstack = 0
  1872  00136A  EC6F  F009         	call	_in_low_int	;wreg free
  1873  00136E  0100               	movlb	0	; () banked
  1874  001370  0100               	movlb	0	; () banked
  1875  001372  51B6               	movf	(?_in_low_int+1)& (0+255),w,b
  1876  001374  0100               	movlb	0	; () banked
  1877  001376  11B5               	iorwf	?_in_low_int& (0+255),w,b
  1878  001378  A4D8               	btfss	status,2,c
  1879  00137A  D011               	goto	l2911
  1880                           
  1881                           ; BSR set to: 0
  1882  00137C  EC74  F00B         	call	_in_high_int	;wreg free
  1883  001380  0100               	movlb	0	; () banked
  1884  001382  0100               	movlb	0	; () banked
  1885  001384  51B4               	movf	(?_in_high_int+1)& (0+255),w,b
  1886  001386  0100               	movlb	0	; () banked
  1887  001388  11B3               	iorwf	?_in_high_int& (0+255),w,b
  1888  00138A  A4D8               	btfss	status,2,c
  1889  00138C  D008               	goto	l2911
  1890                           
  1891                           ; BSR set to: 0
  1892                           ;interrupts.c: 45: return (1);
  1893  00138E  0E00               	movlw	0
  1894  001390  0100               	movlb	0	; () banked
  1895  001392  0100               	movlb	0	; () banked
  1896  001394  6FB8               	movwf	(?_in_main+1)& (0+255),b
  1897  001396  0E01               	movlw	1
  1898  001398  0100               	movlb	0	; () banked
  1899  00139A  6FB7               	movwf	?_in_main& (0+255),b
  1900  00139C  0012               	return	
  1901  00139E                     l2911:
  1902                           
  1903                           ; BSR set to: 0
  1904                           ;interrupts.c: 47: return (0);
  1905  00139E  0E00               	movlw	0
  1906  0013A0  0100               	movlb	0	; () banked
  1907  0013A2  0100               	movlb	0	; () banked
  1908  0013A4  6FB8               	movwf	(?_in_main+1)& (0+255),b
  1909  0013A6  0E00               	movlw	0
  1910  0013A8  0100               	movlb	0	; () banked
  1911  0013AA  6FB7               	movwf	?_in_main& (0+255),b
  1912  0013AC  0012               	return	
  1913  0013AE                     __end_of_in_main:
  1914                           	opt stack 0
  1915                           tblptru	equ	0xFF8
  1916                           prodh	equ	0xFF4
  1917                           prodl	equ	0xFF3
  1918                           intcon	equ	0xFF2
  1919                           postinc0	equ	0xFEE
  1920                           wreg	equ	0xFE8
  1921                           indf2	equ	0xFDF
  1922                           postinc2	equ	0xFDE
  1923                           postdec2	equ	0xFDD
  1924                           fsr2h	equ	0xFDA
  1925                           fsr2l	equ	0xFD9
  1926                           status	equ	0xFD8
  1927                           
  1928 ;; *************** function _in_low_int *****************
  1929 ;; Defined at:
  1930 ;;		line 32 in file "../src/interrupts.c"
  1931 ;; Parameters:    Size  Location     Type
  1932 ;;		None
  1933 ;; Auto vars:     Size  Location     Type
  1934 ;;		None
  1935 ;; Return value:  Size  Location     Type
  1936 ;;                  2   53[BANK0 ] int 
  1937 ;; Registers used:
  1938 ;;		wreg, status,2, status,0, cstack
  1939 ;; Tracked objects:
  1940 ;;		On entry : 0/0
  1941 ;;		On exit  : 0/0
  1942 ;;		Unchanged: 0/0
  1943 ;; Data sizes:     COMRAM   BANK0   BANK1   BANK2   BANK3
  1944 ;;      Params:         0       2       0       0       0
  1945 ;;      Locals:         0       0       0       0       0
  1946 ;;      Temps:          0       0       0       0       0
  1947 ;;      Totals:         0       2       0       0       0
  1948 ;;Total ram usage:        2 bytes
  1949 ;; Hardware stack levels used:    1
  1950 ;; Hardware stack levels required when called:   11
  1951 ;; This function calls:
  1952 ;;		_in_high_int
  1953 ;; This function is called by:
  1954 ;;		_in_main
  1955 ;; This function uses a non-reentrant model
  1956 ;;
  1957                           
  1958                           	psect	text10
  1959  0012DE                     __ptext10:
  1960                           	opt stack 0
  1961  0012DE                     _in_low_int:
  1962                           	opt stack 16
  1963                           
  1964                           ;interrupts.c: 34: if (INTCONbits.GIEL == 1) {
  1965                           
  1966                           ; BSR set to: 0
  1967                           ;incstack = 0
  1968  0012DE  ACF2               	btfss	intcon,6,c	;volatile
  1969  0012E0  D008               	goto	l2889
  1970                           
  1971                           ;interrupts.c: 35: return (0);
  1972  0012E2  0E00               	movlw	0
  1973  0012E4  0100               	movlb	0	; () banked
  1974  0012E6  0100               	movlb	0	; () banked
  1975  0012E8  6FB6               	movwf	(?_in_low_int+1)& (0+255),b
  1976  0012EA  0E00               	movlw	0
  1977  0012EC  0100               	movlb	0	; () banked
  1978  0012EE  6FB5               	movwf	?_in_low_int& (0+255),b
  1979  0012F0  0012               	return	
  1980  0012F2                     l2889:
  1981  0012F2  EC74  F00B         	call	_in_high_int	;wreg free
  1982  0012F6  0100               	movlb	0	; () banked
  1983  0012F8  0100               	movlb	0	; () banked
  1984  0012FA  51B4               	movf	(?_in_high_int+1)& (0+255),w,b
  1985  0012FC  0100               	movlb	0	; () banked
  1986  0012FE  11B3               	iorwf	?_in_high_int& (0+255),w,b
  1987  001300  B4D8               	btfsc	status,2,c
  1988  001302  D008               	goto	l2897
  1989                           
  1990                           ; BSR set to: 0
  1991                           ;interrupts.c: 37: return (0);
  1992  001304  0E00               	movlw	0
  1993  001306  0100               	movlb	0	; () banked
  1994  001308  0100               	movlb	0	; () banked
  1995  00130A  6FB6               	movwf	(?_in_low_int+1)& (0+255),b
  1996  00130C  0E00               	movlw	0
  1997  00130E  0100               	movlb	0	; () banked
  1998  001310  6FB5               	movwf	?_in_low_int& (0+255),b
  1999  001312  0012               	return	
  2000  001314                     l2897:
  2001                           
  2002                           ; BSR set to: 0
  2003                           ;interrupts.c: 39: return (1);
  2004  001314  0E00               	movlw	0
  2005  001316  0100               	movlb	0	; () banked
  2006  001318  0100               	movlb	0	; () banked
  2007  00131A  6FB6               	movwf	(?_in_low_int+1)& (0+255),b
  2008  00131C  0E01               	movlw	1
  2009  00131E  0100               	movlb	0	; () banked
  2010  001320  6FB5               	movwf	?_in_low_int& (0+255),b
  2011  001322  0012               	return	
  2012  001324                     __end_of_in_low_int:
  2013                           	opt stack 0
  2014                           tblptru	equ	0xFF8
  2015                           prodh	equ	0xFF4
  2016                           prodl	equ	0xFF3
  2017                           intcon	equ	0xFF2
  2018                           postinc0	equ	0xFEE
  2019                           wreg	equ	0xFE8
  2020                           indf2	equ	0xFDF
  2021                           postinc2	equ	0xFDE
  2022                           postdec2	equ	0xFDD
  2023                           fsr2h	equ	0xFDA
  2024                           fsr2l	equ	0xFD9
  2025                           status	equ	0xFD8
  2026                           
  2027 ;; *************** function _in_high_int *****************
  2028 ;; Defined at:
  2029 ;;		line 23 in file "../src/interrupts.c"
  2030 ;; Parameters:    Size  Location     Type
  2031 ;;		None
  2032 ;; Auto vars:     Size  Location     Type
  2033 ;;		None
  2034 ;; Return value:  Size  Location     Type
  2035 ;;                  2   51[BANK0 ] int 
  2036 ;; Registers used:
  2037 ;;		wreg, status,2
  2038 ;; Tracked objects:
  2039 ;;		On entry : 0/0
  2040 ;;		On exit  : 0/0
  2041 ;;		Unchanged: 0/0
  2042 ;; Data sizes:     COMRAM   BANK0   BANK1   BANK2   BANK3
  2043 ;;      Params:         0       2       0       0       0
  2044 ;;      Locals:         0       0       0       0       0
  2045 ;;      Temps:          0       0       0       0       0
  2046 ;;      Totals:         0       2       0       0       0
  2047 ;;Total ram usage:        2 bytes
  2048 ;; Hardware stack levels used:    1
  2049 ;; Hardware stack levels required when called:   10
  2050 ;; This function calls:
  2051 ;;		Nothing
  2052 ;; This function is called by:
  2053 ;;		_in_low_int
  2054 ;;		_in_main
  2055 ;; This function uses a non-reentrant model
  2056 ;;
  2057                           
  2058                           	psect	text11
  2059  0016E8                     __ptext11:
  2060                           	opt stack 0
  2061  0016E8                     _in_high_int:
  2062                           	opt stack 16
  2063                           
  2064                           ;interrupts.c: 25: return (!INTCONbits.GIEH);
  2065                           
  2066                           ; BSR set to: 0
  2067                           ;incstack = 0
  2068  0016E8  0E00               	movlw	0
  2069  0016EA  AEF2               	btfss	intcon,7,c	;volatile
  2070  0016EC  0E01               	movlw	1
  2071  0016EE  0100               	movlb	0	; () banked
  2072  0016F0  0100               	movlb	0	; () banked
  2073  0016F2  6FB3               	movwf	?_in_high_int& (0+255),b
  2074  0016F4  0100               	movlb	0	; () banked
  2075  0016F6  6BB4               	clrf	(?_in_high_int+1)& (0+255),b
  2076  0016F8  0012               	return	
  2077  0016FA                     __end_of_in_high_int:
  2078                           	opt stack 0
  2079                           tblptru	equ	0xFF8
  2080                           prodh	equ	0xFF4
  2081                           prodl	equ	0xFF3
  2082                           intcon	equ	0xFF2
  2083                           postinc0	equ	0xFEE
  2084                           wreg	equ	0xFE8
  2085                           indf2	equ	0xFDF
  2086                           postinc2	equ	0xFDE
  2087                           postdec2	equ	0xFDD
  2088                           fsr2h	equ	0xFDA
  2089                           fsr2l	equ	0xFD9
  2090                           status	equ	0xFD8
  2091                           
  2092 ;; *************** function _check_msg *****************
  2093 ;; Defined at:
  2094 ;;		line 222 in file "../src/messages.c"
  2095 ;; Parameters:    Size  Location     Type
  2096 ;;  qptr            2   51[BANK0 ] PTR struct __msg_queue
  2097 ;;		 -> ToMainHigh_MQ(54), ToMainLow_MQ(54), 
  2098 ;; Auto vars:     Size  Location     Type
  2099 ;;		None
  2100 ;; Return value:  Size  Location     Type
  2101 ;;                  1    wreg      unsigned char 
  2102 ;; Registers used:
  2103 ;;		wreg, fsr2l, fsr2h, status,2, status,0, prodl, prodh
  2104 ;; Tracked objects:
  2105 ;;		On entry : 0/0
  2106 ;;		On exit  : 0/0
  2107 ;;		Unchanged: 0/0
  2108 ;; Data sizes:     COMRAM   BANK0   BANK1   BANK2   BANK3
  2109 ;;      Params:         0       2       0       0       0
  2110 ;;      Locals:         0       0       0       0       0
  2111 ;;      Temps:          0       1       0       0       0
  2112 ;;      Totals:         0       3       0       0       0
  2113 ;;Total ram usage:        3 bytes
  2114 ;; Hardware stack levels used:    1
  2115 ;; Hardware stack levels required when called:   10
  2116 ;; This function calls:
  2117 ;;		Nothing
  2118 ;; This function is called by:
  2119 ;;		_block_on_To_msgqueues
  2120 ;; This function uses a non-reentrant model
  2121 ;;
  2122                           
  2123                           	psect	text12
  2124  0014EC                     __ptext12:
  2125                           	opt stack 0
  2126  0014EC                     _check_msg:
  2127                           	opt stack 18
  2128                           
  2129                           ;messages.c: 223: return (qptr->queue[qptr->cur_read_ind].full);
  2130                           
  2131                           ; BSR set to: 0
  2132                           ;incstack = 0
  2133  0014EC  0100               	movlb	0	; () banked
  2134  0014EE  EE20 F035          	lfsr	2,53
  2135  0014F2  0100               	movlb	0	; () banked
  2136  0014F4  51B3               	movf	check_msg@qptr& (0+255),w,b
  2137  0014F6  26D9               	addwf	fsr2l,f,c
  2138  0014F8  0100               	movlb	0	; () banked
  2139  0014FA  51B4               	movf	(check_msg@qptr+1)& (0+255),w,b
  2140  0014FC  22DA               	addwfc	fsr2h,f,c
  2141  0014FE  50DF               	movf	indf2,w,c
  2142  001500  0100               	movlb	0	; () banked
  2143  001502  6FB5               	movwf	??_check_msg& (0+255),b
  2144  001504  0100               	movlb	0	; () banked
  2145  001506  51B5               	movf	??_check_msg& (0+255),w,b
  2146  001508  0D0D               	mullw	13
  2147  00150A  50F3               	movf	prodl,w,c
  2148  00150C  0100               	movlb	0	; () banked
  2149  00150E  0100               	movlb	0	; () banked
  2150  001510  25B3               	addwf	check_msg@qptr& (0+255),w,b
  2151  001512  6ED9               	movwf	fsr2l,c
  2152  001514  50F4               	movf	prodh,w,c
  2153  001516  0100               	movlb	0	; () banked
  2154  001518  0100               	movlb	0	; () banked
  2155  00151A  21B4               	addwfc	(check_msg@qptr+1)& (0+255),w,b
  2156  00151C  6EDA               	movwf	fsr2h,c
  2157  00151E  50DF               	movf	indf2,w,c
  2158  001520  0012               	return	
  2159  001522                     __end_of_check_msg:
  2160                           	opt stack 0
  2161                           tblptru	equ	0xFF8
  2162                           prodh	equ	0xFF4
  2163                           prodl	equ	0xFF3
  2164                           intcon	equ	0xFF2
  2165                           postinc0	equ	0xFEE
  2166                           wreg	equ	0xFE8
  2167                           indf2	equ	0xFDF
  2168                           postinc2	equ	0xFDE
  2169                           postdec2	equ	0xFDD
  2170                           fsr2h	equ	0xFDA
  2171                           fsr2l	equ	0xFD9
  2172                           status	equ	0xFD8
  2173                           
  2174 ;; *************** function _Delay1KTCYx *****************
  2175 ;; Defined at:
  2176 ;;		line 8 in file "C:\Program Files\Microchip\xc8\v1.30\sources\pic18\d1ktcyx.c"
  2177 ;; Parameters:    Size  Location     Type
  2178 ;;  unit            1    wreg     unsigned char 
  2179 ;; Auto vars:     Size  Location     Type
  2180 ;;  unit            1   51[BANK0 ] unsigned char 
  2181 ;; Return value:  Size  Location     Type
  2182 ;;		None               void
  2183 ;; Registers used:
  2184 ;;		wreg
  2185 ;; Tracked objects:
  2186 ;;		On entry : 0/0
  2187 ;;		On exit  : 0/0
  2188 ;;		Unchanged: 0/0
  2189 ;; Data sizes:     COMRAM   BANK0   BANK1   BANK2   BANK3
  2190 ;;      Params:         0       0       0       0       0
  2191 ;;      Locals:         0       1       0       0       0
  2192 ;;      Temps:          0       0       0       0       0
  2193 ;;      Totals:         0       1       0       0       0
  2194 ;;Total ram usage:        1 bytes
  2195 ;; Hardware stack levels used:    1
  2196 ;; Hardware stack levels required when called:   10
  2197 ;; This function calls:
  2198 ;;		Nothing
  2199 ;; This function is called by:
  2200 ;;		_block_on_To_msgqueues
  2201 ;; This function uses a non-reentrant model
  2202 ;;
  2203                           
  2204                           	psect	text13
  2205  0016C0                     __ptext13:
  2206                           	opt stack 0
  2207  0016C0                     _Delay1KTCYx:
  2208                           	opt stack 18
  2209                           
  2210                           ; BSR set to: 0
  2211                           ;incstack = 0
  2212                           ;Delay1KTCYx@unit stored from wreg
  2213  0016C0  CFE8 F0B3          	movff	wreg,Delay1KTCYx@unit
  2214  0016C4                     l787:
  2215  0016C4  0EFA               	movlw	250
  2216  0016C6                     u2637:
  2217  0016C6  F000               	nop	
  2218  0016C8  2EE8               	decfsz	wreg,f,c
  2219  0016CA  D7FD               	goto	u2637
  2220  0016CC  0100               	movlb	0	; () banked
  2221  0016CE  0100               	movlb	0	; () banked
  2222  0016D0  2FB3               	decfsz	Delay1KTCYx@unit& (0+255),f,b
  2223  0016D2  D7F8               	goto	l787
  2224  0016D4  0012               	return	
  2225  0016D6                     __end_of_Delay1KTCYx:
  2226                           	opt stack 0
  2227                           tblptru	equ	0xFF8
  2228                           prodh	equ	0xFF4
  2229                           prodl	equ	0xFF3
  2230                           intcon	equ	0xFF2
  2231                           postinc0	equ	0xFEE
  2232                           wreg	equ	0xFE8
  2233                           indf2	equ	0xFDF
  2234                           postinc2	equ	0xFDE
  2235                           postdec2	equ	0xFDD
  2236                           fsr2h	equ	0xFDA
  2237                           fsr2l	equ	0xFD9
  2238                           status	equ	0xFD8
  2239                           
  2240 ;; *************** function _ToMainLow_recvmsg *****************
  2241 ;; Defined at:
  2242 ;;		line 112 in file "../src/messages.c"
  2243 ;; Parameters:    Size  Location     Type
  2244 ;;  maxlength       1    wreg     unsigned char 
  2245 ;;  msgtype         2   18[BANK1 ] PTR unsigned char 
  2246 ;;		 -> main@msgtype(1), 
  2247 ;;  data            2   20[BANK1 ] PTR void 
  2248 ;;		 -> main@msgbuffer(11), 
  2249 ;; Auto vars:     Size  Location     Type
  2250 ;;  maxlength       1   22[BANK1 ] unsigned char 
  2251 ;; Return value:  Size  Location     Type
  2252 ;;                  1    wreg      char 
  2253 ;; Registers used:
  2254 ;;		wreg, fsr1l, fsr1h, fsr2l, fsr2h, status,2, status,0, prodl, prodh, cstack
  2255 ;; Tracked objects:
  2256 ;;		On entry : 0/0
  2257 ;;		On exit  : 0/0
  2258 ;;		Unchanged: 0/0
  2259 ;; Data sizes:     COMRAM   BANK0   BANK1   BANK2   BANK3
  2260 ;;      Params:         0       0       4       0       0
  2261 ;;      Locals:         0       0       1       0       0
  2262 ;;      Temps:          0       0       0       0       0
  2263 ;;      Totals:         0       0       5       0       0
  2264 ;;Total ram usage:        5 bytes
  2265 ;; Hardware stack levels used:    1
  2266 ;; Hardware stack levels required when called:   12
  2267 ;; This function calls:
  2268 ;;		_recv_msg
  2269 ;; This function is called by:
  2270 ;;		_main
  2271 ;; This function uses a non-reentrant model
  2272 ;;
  2273                           
  2274                           	psect	text14
  2275  0013AE                     __ptext14:
  2276                           	opt stack 0
  2277  0013AE                     _ToMainLow_recvmsg:
  2278                           	opt stack 17
  2279                           
  2280                           ; BSR set to: 0
  2281                           ;incstack = 0
  2282                           ;ToMainLow_recvmsg@maxlength stored from wreg
  2283  0013AE  CFE8 F1EE          	movff	wreg,ToMainLow_recvmsg@maxlength
  2284                           
  2285                           ;messages.c: 118: return (recv_msg(&ToMainLow_MQ, maxlength, msgtype, data));
  2286  0013B2  0101               	movlb	1	; () banked
  2287  0013B4  0E01               	movlw	high _ToMainLow_MQ
  2288  0013B6  0101               	movlb	1	; () banked
  2289  0013B8  0101               	movlb	1	; () banked
  2290  0013BA  6FDD               	movwf	(recv_msg@qptr+1)& (0+255),b
  2291  0013BC  0101               	movlb	1	; () banked
  2292  0013BE  0EA2               	movlw	low _ToMainLow_MQ
  2293  0013C0  0101               	movlb	1	; () banked
  2294  0013C2  0101               	movlb	1	; () banked
  2295  0013C4  6FDC               	movwf	recv_msg@qptr& (0+255),b
  2296  0013C6  C1EE  F1DE         	movff	ToMainLow_recvmsg@maxlength,recv_msg@maxlength
  2297  0013CA  0101               	movlb	1	; () banked
  2298  0013CC  0101               	movlb	1	; () banked
  2299  0013CE  C1EB  F1E0         	movff	ToMainLow_recvmsg@msgtype+1,recv_msg@msgtype+1
  2300  0013D2  0101               	movlb	1	; () banked
  2301  0013D4  0101               	movlb	1	; () banked
  2302  0013D6  C1EA  F1DF         	movff	ToMainLow_recvmsg@msgtype,recv_msg@msgtype
  2303  0013DA  0101               	movlb	1	; () banked
  2304  0013DC  0101               	movlb	1	; () banked
  2305  0013DE  C1ED  F1E2         	movff	ToMainLow_recvmsg@data+1,recv_msg@data+1
  2306  0013E2  0101               	movlb	1	; () banked
  2307  0013E4  0101               	movlb	1	; () banked
  2308  0013E6  C1EC  F1E1         	movff	ToMainLow_recvmsg@data,recv_msg@data
  2309  0013EA  EC9D  F003         	call	_recv_msg	;wreg free
  2310  0013EE  0012               	return	
  2311  0013F0                     __end_of_ToMainLow_recvmsg:
  2312                           	opt stack 0
  2313                           tblptru	equ	0xFF8
  2314                           prodh	equ	0xFF4
  2315                           prodl	equ	0xFF3
  2316                           intcon	equ	0xFF2
  2317                           postinc0	equ	0xFEE
  2318                           wreg	equ	0xFE8
  2319                           indf2	equ	0xFDF
  2320                           postinc2	equ	0xFDE
  2321                           postdec2	equ	0xFDD
  2322                           fsr2h	equ	0xFDA
  2323                           fsr2l	equ	0xFD9
  2324                           status	equ	0xFD8
  2325                           
  2326 ;; *************** function _ToMainHigh_recvmsg *****************
  2327 ;; Defined at:
  2328 ;;		line 135 in file "../src/messages.c"
  2329 ;; Parameters:    Size  Location     Type
  2330 ;;  maxlength       1    wreg     unsigned char 
  2331 ;;  msgtype         2   18[BANK1 ] PTR unsigned char 
  2332 ;;		 -> main@msgtype(1), 
  2333 ;;  data            2   20[BANK1 ] PTR void 
  2334 ;;		 -> main@msgbuffer(11), 
  2335 ;; Auto vars:     Size  Location     Type
  2336 ;;  maxlength       1   22[BANK1 ] unsigned char 
  2337 ;; Return value:  Size  Location     Type
  2338 ;;                  1    wreg      char 
  2339 ;; Registers used:
  2340 ;;		wreg, fsr1l, fsr1h, fsr2l, fsr2h, status,2, status,0, prodl, prodh, cstack
  2341 ;; Tracked objects:
  2342 ;;		On entry : 0/0
  2343 ;;		On exit  : 0/0
  2344 ;;		Unchanged: 0/0
  2345 ;; Data sizes:     COMRAM   BANK0   BANK1   BANK2   BANK3
  2346 ;;      Params:         0       0       4       0       0
  2347 ;;      Locals:         0       0       1       0       0
  2348 ;;      Temps:          0       0       0       0       0
  2349 ;;      Totals:         0       0       5       0       0
  2350 ;;Total ram usage:        5 bytes
  2351 ;; Hardware stack levels used:    1
  2352 ;; Hardware stack levels required when called:   12
  2353 ;; This function calls:
  2354 ;;		_recv_msg
  2355 ;; This function is called by:
  2356 ;;		_main
  2357 ;; This function uses a non-reentrant model
  2358 ;;
  2359                           
  2360                           	psect	text15
  2361  0013F0                     __ptext15:
  2362                           	opt stack 0
  2363  0013F0                     _ToMainHigh_recvmsg:
  2364                           	opt stack 17
  2365                           
  2366                           ;incstack = 0
  2367                           ;ToMainHigh_recvmsg@maxlength stored from wreg
  2368  0013F0  CFE8 F1EE          	movff	wreg,ToMainHigh_recvmsg@maxlength
  2369                           
  2370                           ;messages.c: 141: return (recv_msg(&ToMainHigh_MQ, maxlength, msgtype, data));
  2371  0013F4  0101               	movlb	1	; () banked
  2372  0013F6  0E01               	movlw	high _ToMainHigh_MQ
  2373  0013F8  0101               	movlb	1	; () banked
  2374  0013FA  0101               	movlb	1	; () banked
  2375  0013FC  6FDD               	movwf	(recv_msg@qptr+1)& (0+255),b
  2376  0013FE  0101               	movlb	1	; () banked
  2377  001400  0E6C               	movlw	low _ToMainHigh_MQ
  2378  001402  0101               	movlb	1	; () banked
  2379  001404  0101               	movlb	1	; () banked
  2380  001406  6FDC               	movwf	recv_msg@qptr& (0+255),b
  2381  001408  C1EE  F1DE         	movff	ToMainHigh_recvmsg@maxlength,recv_msg@maxlength
  2382  00140C  0101               	movlb	1	; () banked
  2383  00140E  0101               	movlb	1	; () banked
  2384  001410  C1EB  F1E0         	movff	ToMainHigh_recvmsg@msgtype+1,recv_msg@msgtype+1
  2385  001414  0101               	movlb	1	; () banked
  2386  001416  0101               	movlb	1	; () banked
  2387  001418  C1EA  F1DF         	movff	ToMainHigh_recvmsg@msgtype,recv_msg@msgtype
  2388  00141C  0101               	movlb	1	; () banked
  2389  00141E  0101               	movlb	1	; () banked
  2390  001420  C1ED  F1E2         	movff	ToMainHigh_recvmsg@data+1,recv_msg@data+1
  2391  001424  0101               	movlb	1	; () banked
  2392  001426  0101               	movlb	1	; () banked
  2393  001428  C1EC  F1E1         	movff	ToMainHigh_recvmsg@data,recv_msg@data
  2394  00142C  EC9D  F003         	call	_recv_msg	;wreg free
  2395  001430  0012               	return	
  2396  001432                     __end_of_ToMainHigh_recvmsg:
  2397                           	opt stack 0
  2398                           tblptru	equ	0xFF8
  2399                           prodh	equ	0xFF4
  2400                           prodl	equ	0xFF3
  2401                           intcon	equ	0xFF2
  2402                           postinc0	equ	0xFEE
  2403                           wreg	equ	0xFE8
  2404                           indf2	equ	0xFDF
  2405                           postinc2	equ	0xFDE
  2406                           postdec2	equ	0xFDD
  2407                           fsr2h	equ	0xFDA
  2408                           fsr2l	equ	0xFD9
  2409                           status	equ	0xFD8
  2410                           
  2411 ;; *************** function _recv_msg *****************
  2412 ;; Defined at:
  2413 ;;		line 63 in file "../src/messages.c"
  2414 ;; Parameters:    Size  Location     Type
  2415 ;;  qptr            2    4[BANK1 ] PTR struct __msg_queue
  2416 ;;		 -> FromMainHigh_MQ(54), FromMainLow_MQ(54), ToMainHigh_MQ(54), ToMainLow_MQ(54), 
  2417 ;;  maxlength       1    6[BANK1 ] unsigned char 
  2418 ;;  msgtype         2    7[BANK1 ] PTR unsigned char 
  2419 ;;		 -> timer0_int_handler@msgtype(2), main@msgtype(1), 
  2420 ;;  data            2    9[BANK1 ] PTR void 
  2421 ;;		 -> timer0_int_handler@val(2), main@msgbuffer(11), 
  2422 ;; Auto vars:     Size  Location     Type
  2423 ;;  qmsg            2   16[BANK1 ] PTR struct __msg
  2424 ;;		 -> FromMainLow_MQ.queue(52), FromMainHigh_MQ.queue(52), ToMainHigh_MQ.queue(52), ToMainLow_MQ.queue(52), 
  2425 ;;		 -> FromMainHigh_MQ(54), FromMainLow_MQ(54), ToMainHigh_MQ(54), ToMainLow_MQ(54), 
  2426 ;;  tlength         2   14[BANK1 ] unsigned int 
  2427 ;;  slot            1   13[BANK1 ] unsigned char 
  2428 ;; Return value:  Size  Location     Type
  2429 ;;                  1    wreg      char 
  2430 ;; Registers used:
  2431 ;;		wreg, fsr1l, fsr1h, fsr2l, fsr2h, status,2, status,0, prodl, prodh, cstack
  2432 ;; Tracked objects:
  2433 ;;		On entry : 0/0
  2434 ;;		On exit  : 0/0
  2435 ;;		Unchanged: 0/0
  2436 ;; Data sizes:     COMRAM   BANK0   BANK1   BANK2   BANK3
  2437 ;;      Params:         0       0       7       0       0
  2438 ;;      Locals:         0       0       5       0       0
  2439 ;;      Temps:          0       0       2       0       0
  2440 ;;      Totals:         0       0      14       0       0
  2441 ;;Total ram usage:       14 bytes
  2442 ;; Hardware stack levels used:    1
  2443 ;; Hardware stack levels required when called:   11
  2444 ;; This function calls:
  2445 ;;		_memcpy
  2446 ;; This function is called by:
  2447 ;;		_ToMainLow_recvmsg
  2448 ;;		_ToMainHigh_recvmsg
  2449 ;;		_FromMainLow_recvmsg
  2450 ;; This function uses a non-reentrant model
  2451 ;;
  2452                           
  2453                           	psect	text16
  2454  00073A                     __ptext16:
  2455                           	opt stack 0
  2456  00073A                     _recv_msg:
  2457                           	opt stack 17
  2458                           
  2459                           ;messages.c: 64: unsigned char slot;
  2460                           ;messages.c: 68: msg *qmsg;
  2461                           ;messages.c: 69: size_t tlength;
  2462                           ;messages.c: 72: slot = qptr->cur_read_ind;
  2463                           
  2464                           ;incstack = 0
  2465  00073A  0101               	movlb	1	; () banked
  2466  00073C  EE20 F035          	lfsr	2,53
  2467  000740  0101               	movlb	1	; () banked
  2468  000742  51DC               	movf	recv_msg@qptr& (0+255),w,b
  2469  000744  26D9               	addwf	fsr2l,f,c
  2470  000746  0101               	movlb	1	; () banked
  2471  000748  51DD               	movf	(recv_msg@qptr+1)& (0+255),w,b
  2472  00074A  22DA               	addwfc	fsr2h,f,c
  2473  00074C  50DF               	movf	indf2,w,c
  2474  00074E  0101               	movlb	1	; () banked
  2475  000750  0101               	movlb	1	; () banked
  2476  000752  6FE5               	movwf	recv_msg@slot& (0+255),b
  2477                           
  2478                           ; BSR set to: 1
  2479                           ;messages.c: 73: qmsg = &(qptr->queue[slot]);
  2480  000754  0101               	movlb	1	; () banked
  2481  000756  0101               	movlb	1	; () banked
  2482  000758  51E5               	movf	recv_msg@slot& (0+255),w,b
  2483  00075A  0D0D               	mullw	13
  2484  00075C  50F3               	movf	prodl,w,c
  2485  00075E  0101               	movlb	1	; () banked
  2486  000760  0101               	movlb	1	; () banked
  2487  000762  25DC               	addwf	recv_msg@qptr& (0+255),w,b
  2488  000764  0101               	movlb	1	; () banked
  2489  000766  0101               	movlb	1	; () banked
  2490  000768  6FE8               	movwf	recv_msg@qmsg& (0+255),b
  2491  00076A  50F4               	movf	prodh,w,c
  2492  00076C  0101               	movlb	1	; () banked
  2493  00076E  0101               	movlb	1	; () banked
  2494  000770  21DD               	addwfc	(recv_msg@qptr+1)& (0+255),w,b
  2495  000772  0101               	movlb	1	; () banked
  2496  000774  6FE9               	movwf	(recv_msg@qmsg+1)& (0+255),b
  2497                           
  2498                           ; BSR set to: 1
  2499                           ;messages.c: 74: if (qmsg->full == 1) {
  2500  000776  0E01               	movlw	1
  2501  000778  C1E8  FFD9         	movff	recv_msg@qmsg,fsr2l
  2502  00077C  C1E9  FFDA         	movff	recv_msg@qmsg+1,fsr2h
  2503  000780  62DF               	cpfseq	indf2,c
  2504  000782  D074               	goto	l3379
  2505                           
  2506                           ; BSR set to: 1
  2507                           ;messages.c: 76: if (qmsg->length > maxlength) {
  2508  000784  0101               	movlb	1	; () banked
  2509  000786  EE20 F001          	lfsr	2,1
  2510  00078A  0101               	movlb	1	; () banked
  2511  00078C  51E8               	movf	recv_msg@qmsg& (0+255),w,b
  2512  00078E  26D9               	addwf	fsr2l,f,c
  2513  000790  0101               	movlb	1	; () banked
  2514  000792  51E9               	movf	(recv_msg@qmsg+1)& (0+255),w,b
  2515  000794  22DA               	addwfc	fsr2h,f,c
  2516  000796  50DF               	movf	indf2,w,c
  2517  000798  0101               	movlb	1	; () banked
  2518  00079A  0101               	movlb	1	; () banked
  2519  00079C  5DDE               	subwf	recv_msg@maxlength& (0+255),w,b
  2520  00079E  B0D8               	btfsc	status,0,c
  2521  0007A0  D002               	goto	l3363
  2522                           
  2523                           ; BSR set to: 1
  2524                           ;messages.c: 77: return (-3);
  2525  0007A2  0EFD               	movlw	253
  2526  0007A4  0012               	return	
  2527  0007A6                     l3363:
  2528                           
  2529                           ; BSR set to: 1
  2530                           ;messages.c: 78: }
  2531                           ;messages.c: 80: tlength = qmsg->length;
  2532  0007A6  0101               	movlb	1	; () banked
  2533  0007A8  EE20 F001          	lfsr	2,1
  2534  0007AC  0101               	movlb	1	; () banked
  2535  0007AE  51E8               	movf	recv_msg@qmsg& (0+255),w,b
  2536  0007B0  26D9               	addwf	fsr2l,f,c
  2537  0007B2  0101               	movlb	1	; () banked
  2538  0007B4  51E9               	movf	(recv_msg@qmsg+1)& (0+255),w,b
  2539  0007B6  22DA               	addwfc	fsr2h,f,c
  2540  0007B8  50DF               	movf	indf2,w,c
  2541  0007BA  0101               	movlb	1	; () banked
  2542  0007BC  6FE3               	movwf	??_recv_msg& (0+255),b
  2543  0007BE  0101               	movlb	1	; () banked
  2544  0007C0  51E3               	movf	??_recv_msg& (0+255),w,b
  2545  0007C2  0101               	movlb	1	; () banked
  2546  0007C4  0101               	movlb	1	; () banked
  2547  0007C6  6FE6               	movwf	recv_msg@tlength& (0+255),b
  2548  0007C8  0101               	movlb	1	; () banked
  2549  0007CA  6BE7               	clrf	(recv_msg@tlength+1)& (0+255),b
  2550                           
  2551                           ; BSR set to: 1
  2552                           ;messages.c: 81: memcpy(data, qmsg->data, tlength);
  2553  0007CC  0101               	movlb	1	; () banked
  2554  0007CE  0100               	movlb	0	; () banked
  2555  0007D0  C1E2  F0B4         	movff	recv_msg@data+1,memcpy@d1+1
  2556  0007D4  0101               	movlb	1	; () banked
  2557  0007D6  0100               	movlb	0	; () banked
  2558  0007D8  C1E1  F0B3         	movff	recv_msg@data,memcpy@d1
  2559  0007DC  0E03               	movlw	3
  2560  0007DE  0101               	movlb	1	; () banked
  2561  0007E0  0101               	movlb	1	; () banked
  2562  0007E2  25E8               	addwf	recv_msg@qmsg& (0+255),w,b
  2563  0007E4  0101               	movlb	1	; () banked
  2564  0007E6  6FE3               	movwf	??_recv_msg& (0+255),b
  2565  0007E8  0E00               	movlw	0
  2566  0007EA  0101               	movlb	1	; () banked
  2567  0007EC  0101               	movlb	1	; () banked
  2568  0007EE  21E9               	addwfc	(recv_msg@qmsg+1)& (0+255),w,b
  2569  0007F0  0101               	movlb	1	; () banked
  2570  0007F2  6FE4               	movwf	(??_recv_msg+1)& (0+255),b
  2571  0007F4  C1E3  F0B5         	movff	??_recv_msg,memcpy@s1
  2572  0007F8  C1E4  F0B6         	movff	??_recv_msg+1,memcpy@s1+1
  2573  0007FC  C1E6  F0B7         	movff	recv_msg@tlength,memcpy@n
  2574  000800  C1E7  F0B8         	movff	recv_msg@tlength+1,memcpy@n+1
  2575  000804  ECEA  F008         	call	_memcpy	;wreg free
  2576                           
  2577                           ;messages.c: 87: qptr->cur_read_ind = (qptr->cur_read_ind + 1) % 4;
  2578  000808  0101               	movlb	1	; () banked
  2579  00080A  EE20 F035          	lfsr	2,53
  2580  00080E  0101               	movlb	1	; () banked
  2581  000810  51DC               	movf	recv_msg@qptr& (0+255),w,b
  2582  000812  26D9               	addwf	fsr2l,f,c
  2583  000814  0101               	movlb	1	; () banked
  2584  000816  51DD               	movf	(recv_msg@qptr+1)& (0+255),w,b
  2585  000818  22DA               	addwfc	fsr2h,f,c
  2586  00081A  0101               	movlb	1	; () banked
  2587  00081C  EE10 F035          	lfsr	1,53
  2588  000820  0101               	movlb	1	; () banked
  2589  000822  51DC               	movf	recv_msg@qptr& (0+255),w,b
  2590  000824  26E1               	addwf	fsr1l,f,c
  2591  000826  0101               	movlb	1	; () banked
  2592  000828  51DD               	movf	(recv_msg@qptr+1)& (0+255),w,b
  2593  00082A  22E2               	addwfc	fsr1h,f,c
  2594  00082C  50E7               	movf	indf1,w,c
  2595  00082E  0101               	movlb	1	; () banked
  2596  000830  6FE3               	movwf	??_recv_msg& (0+255),b
  2597  000832  0101               	movlb	1	; () banked
  2598  000834  29E3               	incf	??_recv_msg& (0+255),w,b
  2599  000836  0B03               	andlw	3
  2600  000838  6EDF               	movwf	indf2,c
  2601                           
  2602                           ; BSR set to: 1
  2603                           ;messages.c: 89: (*msgtype) = qmsg->msgtype;
  2604  00083A  0101               	movlb	1	; () banked
  2605  00083C  EE20 F002          	lfsr	2,2
  2606  000840  0101               	movlb	1	; () banked
  2607  000842  51E8               	movf	recv_msg@qmsg& (0+255),w,b
  2608  000844  26D9               	addwf	fsr2l,f,c
  2609  000846  0101               	movlb	1	; () banked
  2610  000848  51E9               	movf	(recv_msg@qmsg+1)& (0+255),w,b
  2611  00084A  22DA               	addwfc	fsr2h,f,c
  2612  00084C  C1DF  FFE1         	movff	recv_msg@msgtype,fsr1l
  2613  000850  C1E0  FFE2         	movff	recv_msg@msgtype+1,fsr1h
  2614  000854  CFDF FFE7          	movff	indf2,indf1
  2615                           
  2616                           ; BSR set to: 1
  2617                           ;messages.c: 91: qmsg->full = 0;
  2618  000858  C1E8  FFD9         	movff	recv_msg@qmsg,fsr2l
  2619  00085C  C1E9  FFDA         	movff	recv_msg@qmsg+1,fsr2h
  2620  000860  0E00               	movlw	0
  2621  000862  6EDF               	movwf	indf2,c
  2622                           
  2623                           ; BSR set to: 1
  2624                           ;messages.c: 92: return (tlength);
  2625  000864  0101               	movlb	1	; () banked
  2626  000866  0101               	movlb	1	; () banked
  2627  000868  51E6               	movf	recv_msg@tlength& (0+255),w,b
  2628  00086A  0012               	return	
  2629  00086C                     l3379:
  2630                           
  2631                           ; BSR set to: 1
  2632                           ;messages.c: 94: return (-4);
  2633  00086C  0EFC               	movlw	252
  2634  00086E  0012               	return	
  2635  000870                     __end_of_recv_msg:
  2636                           	opt stack 0
  2637                           tblptru	equ	0xFF8
  2638                           prodh	equ	0xFF4
  2639                           prodl	equ	0xFF3
  2640                           intcon	equ	0xFF2
  2641                           postinc0	equ	0xFEE
  2642                           wreg	equ	0xFE8
  2643                           indf1	equ	0xFE7
  2644                           fsr1h	equ	0xFE2
  2645                           fsr1l	equ	0xFE1
  2646                           indf2	equ	0xFDF
  2647                           postinc2	equ	0xFDE
  2648                           postdec2	equ	0xFDD
  2649                           fsr2h	equ	0xFDA
  2650                           fsr2l	equ	0xFD9
  2651                           status	equ	0xFD8
  2652                           
  2653 ;; *************** function _memcpy *****************
  2654 ;; Defined at:
  2655 ;;		line 11 in file "C:\Program Files\Microchip\xc8\v1.30\sources\common\memcpy.c"
  2656 ;; Parameters:    Size  Location     Type
  2657 ;;  d1              2   51[BANK0 ] PTR void 
  2658 ;;		 -> FromMainLow_MQ.queue(52), FromMainHigh_MQ.queue(52), ToMainHigh_MQ.queue(52), ToMainLow_MQ.queue(52), 
  2659 ;;		 -> timer0_int_handler@val(2), FromMainHigh_MQ(54), FromMainLow_MQ(54), ToMainHigh_MQ(54), 
  2660 ;;		 -> ToMainLow_MQ(54), main@msgbuffer(11), 
  2661 ;;  s1              2   53[BANK0 ] PTR const void 
  2662 ;;		 -> ToMainLow_MQ.data(10), ToMainHigh_MQ.data(10), FromMainLow_MQ.data(10), FromMainHigh_MQ.data(10), 
  2663 ;;		 -> ToMainLow_MQ.queue.data(10), ToMainHigh_MQ.queue.data(10), FromMainHigh_MQ.queue.data(10), FromMainLow_MQ.queue.
      +data(10), 
  2664 ;;		 -> timer0_int_handler@val(2), NULL(0), i2c_int_handler@error_buf(3), FromMainHigh_MQ(54), 
  2665 ;;		 -> FromMainLow_MQ(54), ToMainHigh_MQ(54), ToMainLow_MQ(54), main@ic(28), 
  2666 ;;		 -> main@uc(5), 
  2667 ;;  n               2   55[BANK0 ] unsigned int 
  2668 ;; Auto vars:     Size  Location     Type
  2669 ;;  s               2    2[BANK1 ] PTR const unsigned char 
  2670 ;;		 -> ToMainLow_MQ.data(10), ToMainHigh_MQ.data(10), FromMainLow_MQ.data(10), FromMainHigh_MQ.data(10), 
  2671 ;;		 -> ToMainLow_MQ.queue.data(10), ToMainHigh_MQ.queue.data(10), FromMainHigh_MQ.queue.data(10), FromMainLow_MQ.queue.
      +data(10), 
  2672 ;;		 -> timer0_int_handler@val(2), NULL(0), i2c_int_handler@error_buf(3), FromMainHigh_MQ(54), 
  2673 ;;		 -> FromMainLow_MQ(54), ToMainHigh_MQ(54), ToMainLow_MQ(54), main@ic(28), 
  2674 ;;		 -> main@uc(5), 
  2675 ;;  d               2    0[BANK1 ] PTR unsigned char 
  2676 ;;		 -> FromMainLow_MQ.queue(52), FromMainHigh_MQ.queue(52), ToMainHigh_MQ.queue(52), ToMainLow_MQ.queue(52), 
  2677 ;;		 -> timer0_int_handler@val(2), FromMainHigh_MQ(54), FromMainLow_MQ(54), ToMainHigh_MQ(54), 
  2678 ;;		 -> ToMainLow_MQ(54), main@msgbuffer(11), 
  2679 ;; Return value:  Size  Location     Type
  2680 ;;                  2   51[BANK0 ] PTR void 
  2681 ;; Registers used:
  2682 ;;		wreg, fsr1l, fsr1h, fsr2l, fsr2h, status,2, status,0
  2683 ;; Tracked objects:
  2684 ;;		On entry : 0/0
  2685 ;;		On exit  : 0/0
  2686 ;;		Unchanged: 0/0
  2687 ;; Data sizes:     COMRAM   BANK0   BANK1   BANK2   BANK3
  2688 ;;      Params:         0       6       0       0       0
  2689 ;;      Locals:         0       0       4       0       0
  2690 ;;      Temps:          0       0       0       0       0
  2691 ;;      Totals:         0       6       4       0       0
  2692 ;;Total ram usage:       10 bytes
  2693 ;; Hardware stack levels used:    1
  2694 ;; Hardware stack levels required when called:   10
  2695 ;; This function calls:
  2696 ;;		Nothing
  2697 ;; This function is called by:
  2698 ;;		_recv_msg
  2699 ;; This function uses a non-reentrant model
  2700 ;;
  2701                           
  2702                           	psect	text17
  2703  0011D4                     __ptext17:
  2704                           	opt stack 0
  2705  0011D4                     _memcpy:
  2706                           	opt stack 17
  2707                           
  2708                           ; BSR set to: 1
  2709                           ;incstack = 0
  2710  0011D4  0100               	movlb	0	; () banked
  2711  0011D6  0101               	movlb	1	; () banked
  2712  0011D8  C0B6  F1DB         	movff	memcpy@s1+1,memcpy@s+1
  2713  0011DC  0100               	movlb	0	; () banked
  2714  0011DE  0101               	movlb	1	; () banked
  2715  0011E0  C0B5  F1DA         	movff	memcpy@s1,memcpy@s
  2716  0011E4  0100               	movlb	0	; () banked
  2717  0011E6  0101               	movlb	1	; () banked
  2718  0011E8  C0B4  F1D9         	movff	memcpy@d1+1,memcpy@d+1
  2719  0011EC  0100               	movlb	0	; () banked
  2720  0011EE  0101               	movlb	1	; () banked
  2721  0011F0  C0B3  F1D8         	movff	memcpy@d1,memcpy@d
  2722  0011F4  D012               	goto	l3349
  2723  0011F6                     l3343:
  2724  0011F6  C1DA  FFD9         	movff	memcpy@s,fsr2l
  2725  0011FA  C1DB  FFDA         	movff	memcpy@s+1,fsr2h
  2726  0011FE  C1D8  FFE1         	movff	memcpy@d,fsr1l
  2727  001202  C1D9  FFE2         	movff	memcpy@d+1,fsr1h
  2728  001206  CFDF FFE7          	movff	indf2,indf1
  2729  00120A  0101               	movlb	1	; () banked
  2730  00120C  0101               	movlb	1	; () banked
  2731  00120E  4BDA               	infsnz	memcpy@s& (0+255),f,b
  2732  001210  2BDB               	incf	(memcpy@s+1)& (0+255),f,b
  2733                           
  2734                           ; BSR set to: 1
  2735  001212  0101               	movlb	1	; () banked
  2736  001214  0101               	movlb	1	; () banked
  2737  001216  4BD8               	infsnz	memcpy@d& (0+255),f,b
  2738  001218  2BD9               	incf	(memcpy@d+1)& (0+255),f,b
  2739  00121A                     l3349:
  2740                           
  2741                           ; BSR set to: 1
  2742  00121A  0100               	movlb	0	; () banked
  2743  00121C  0100               	movlb	0	; () banked
  2744  00121E  07B7               	decf	memcpy@n& (0+255),f,b
  2745  001220  A0D8               	btfss	status,0,c
  2746  001222  07B8               	decf	(memcpy@n+1)& (0+255),f,b
  2747  001224  0100               	movlb	0	; () banked
  2748  001226  29B7               	incf	memcpy@n& (0+255),w,b
  2749  001228  B4D8               	btfsc	status,2,c
  2750  00122A  29B8               	incf	(memcpy@n+1)& (0+255),w,b
  2751  00122C  B4D8               	btfsc	status,2,c
  2752                           
  2753                           ; BSR set to: 0
  2754                           
  2755                           ; BSR set to: 0
  2756                           ;	Return value of _memcpy is never used
  2757  00122E  0012               	return	
  2758  001230  D7E2               	goto	l3343
  2759  001232                     __end_of_memcpy:
  2760                           	opt stack 0
  2761                           tblptru	equ	0xFF8
  2762                           prodh	equ	0xFF4
  2763                           prodl	equ	0xFF3
  2764                           intcon	equ	0xFF2
  2765                           postinc0	equ	0xFEE
  2766                           wreg	equ	0xFE8
  2767                           indf1	equ	0xFE7
  2768                           fsr1h	equ	0xFE2
  2769                           fsr1l	equ	0xFE1
  2770                           indf2	equ	0xFDF
  2771                           postinc2	equ	0xFDE
  2772                           postdec2	equ	0xFDD
  2773                           fsr2h	equ	0xFDA
  2774                           fsr2l	equ	0xFD9
  2775                           status	equ	0xFD8
  2776                           
  2777 ;; *************** function _SetChanADC *****************
  2778 ;; Defined at:
  2779 ;;		line 30 in file "C:\Program Files\Microchip\xc8\v1.30\sources\pic18\plib\ADC\adcsetch.c"
  2780 ;; Parameters:    Size  Location     Type
  2781 ;;  channel         1    wreg     unsigned char 
  2782 ;; Auto vars:     Size  Location     Type
  2783 ;;  channel         1   52[BANK0 ] unsigned char 
  2784 ;; Return value:  Size  Location     Type
  2785 ;;		None               void
  2786 ;; Registers used:
  2787 ;;		wreg, status,2, status,0
  2788 ;; Tracked objects:
  2789 ;;		On entry : 0/0
  2790 ;;		On exit  : 0/0
  2791 ;;		Unchanged: 0/0
  2792 ;; Data sizes:     COMRAM   BANK0   BANK1   BANK2   BANK3
  2793 ;;      Params:         0       0       0       0       0
  2794 ;;      Locals:         0       1       0       0       0
  2795 ;;      Temps:          0       1       0       0       0
  2796 ;;      Totals:         0       2       0       0       0
  2797 ;;Total ram usage:        2 bytes
  2798 ;; Hardware stack levels used:    1
  2799 ;; Hardware stack levels required when called:   10
  2800 ;; This function calls:
  2801 ;;		Nothing
  2802 ;; This function is called by:
  2803 ;;		_main
  2804 ;; This function uses a non-reentrant model
  2805 ;;
  2806                           
  2807                           	psect	text18
  2808  001664                     __ptext18:
  2809                           	opt stack 0
  2810  001664                     _SetChanADC:
  2811                           	opt stack 19
  2812                           
  2813                           ; BSR set to: 0
  2814                           ;incstack = 0
  2815                           ;SetChanADC@channel stored from wreg
  2816  001664  CFE8 F0B4          	movff	wreg,SetChanADC@channel
  2817  001668  CFC2 F0B3          	movff	4034,??_SetChanADC	;volatile
  2818  00166C  0EC3               	movlw	195
  2819  00166E  0100               	movlb	0	; () banked
  2820  001670  17B3               	andwf	??_SetChanADC& (0+255),f,b
  2821  001672  0100               	movlb	0	; () banked
  2822  001674  0100               	movlb	0	; () banked
  2823  001676  90D8               	bcf	status,0,c
  2824  001678  31B4               	rrcf	SetChanADC@channel& (0+255),w,b
  2825  00167A  0B3C               	andlw	60
  2826  00167C  0100               	movlb	0	; () banked
  2827  00167E  11B3               	iorwf	??_SetChanADC& (0+255),w,b
  2828  001680  6EC2               	movwf	4034,c	;volatile
  2829                           
  2830                           ; BSR set to: 0
  2831  001682  0012               	return	
  2832  001684                     __end_of_SetChanADC:
  2833                           	opt stack 0
  2834                           tblptru	equ	0xFF8
  2835                           prodh	equ	0xFF4
  2836                           prodl	equ	0xFF3
  2837                           intcon	equ	0xFF2
  2838                           postinc0	equ	0xFEE
  2839                           wreg	equ	0xFE8
  2840                           indf1	equ	0xFE7
  2841                           fsr1h	equ	0xFE2
  2842                           fsr1l	equ	0xFE1
  2843                           indf2	equ	0xFDF
  2844                           postinc2	equ	0xFDE
  2845                           postdec2	equ	0xFDD
  2846                           fsr2h	equ	0xFDA
  2847                           fsr2l	equ	0xFD9
  2848                           status	equ	0xFD8
  2849                           
  2850 ;; *************** function _OpenUSART *****************
  2851 ;; Defined at:
  2852 ;;		line 73 in file "C:\Program Files\Microchip\xc8\v1.30\sources\pic18\plib\USART\uopen.c"
  2853 ;; Parameters:    Size  Location     Type
  2854 ;;  config          1    wreg     unsigned char 
  2855 ;;  spbrg           2   51[BANK0 ] unsigned int 
  2856 ;; Auto vars:     Size  Location     Type
  2857 ;;  config          1   56[BANK0 ] unsigned char 
  2858 ;; Return value:  Size  Location     Type
  2859 ;;		None               void
  2860 ;; Registers used:
  2861 ;;		wreg, status,2
  2862 ;; Tracked objects:
  2863 ;;		On entry : 0/0
  2864 ;;		On exit  : 0/0
  2865 ;;		Unchanged: 0/0
  2866 ;; Data sizes:     COMRAM   BANK0   BANK1   BANK2   BANK3
  2867 ;;      Params:         0       2       0       0       0
  2868 ;;      Locals:         0       1       0       0       0
  2869 ;;      Temps:          0       3       0       0       0
  2870 ;;      Totals:         0       6       0       0       0
  2871 ;;Total ram usage:        6 bytes
  2872 ;; Hardware stack levels used:    1
  2873 ;; Hardware stack levels required when called:   10
  2874 ;; This function calls:
  2875 ;;		Nothing
  2876 ;; This function is called by:
  2877 ;;		_main
  2878 ;; This function uses a non-reentrant model
  2879 ;;
  2880                           
  2881                           	psect	text19
  2882  000D62                     __ptext19:
  2883                           	opt stack 0
  2884  000D62                     _OpenUSART:
  2885                           	opt stack 19
  2886                           
  2887                           ; BSR set to: 0
  2888                           ;incstack = 0
  2889                           ;OpenUSART@config stored from wreg
  2890  000D62  CFE8 F0B8          	movff	wreg,OpenUSART@config
  2891  000D66  0E00               	movlw	0
  2892  000D68  6EAC               	movwf	4012,c	;volatile
  2893  000D6A  0E00               	movlw	0
  2894  000D6C  6EAB               	movwf	4011,c	;volatile
  2895  000D6E  0100               	movlb	0	; () banked
  2896  000D70  0100               	movlb	0	; () banked
  2897  000D72  B1B8               	btfsc	OpenUSART@config& (0+255),0,b
  2898                           
  2899                           ; BSR set to: 0
  2900  000D74  88AC               	bsf	4012,4,c	;volatile
  2901                           
  2902                           ; BSR set to: 0
  2903                           
  2904                           ; BSR set to: 0
  2905  000D76  0100               	movlb	0	; () banked
  2906  000D78  0100               	movlb	0	; () banked
  2907  000D7A  A3B8               	btfss	OpenUSART@config& (0+255),1,b
  2908  000D7C  D002               	goto	l3259
  2909                           
  2910                           ; BSR set to: 0
  2911  000D7E  8CAC               	bsf	4012,6,c	;volatile
  2912  000D80  8CAB               	bsf	4011,6,c	;volatile
  2913  000D82                     l3259:
  2914                           
  2915                           ; BSR set to: 0
  2916  000D82  0100               	movlb	0	; () banked
  2917  000D84  0100               	movlb	0	; () banked
  2918  000D86  B5B8               	btfsc	OpenUSART@config& (0+255),2,b
  2919                           
  2920                           ; BSR set to: 0
  2921  000D88  8EAC               	bsf	4012,7,c	;volatile
  2922                           
  2923                           ; BSR set to: 0
  2924                           
  2925                           ; BSR set to: 0
  2926  000D8A  0100               	movlb	0	; () banked
  2927  000D8C  0100               	movlb	0	; () banked
  2928  000D8E  A7B8               	btfss	OpenUSART@config& (0+255),3,b
  2929  000D90  D002               	goto	l554
  2930                           
  2931                           ; BSR set to: 0
  2932  000D92  88AB               	bsf	4011,4,c	;volatile
  2933  000D94  D001               	goto	l3267
  2934  000D96                     l554:
  2935                           
  2936                           ; BSR set to: 0
  2937  000D96  8AAB               	bsf	4011,5,c	;volatile
  2938  000D98                     l3267:
  2939                           
  2940                           ; BSR set to: 0
  2941  000D98  0100               	movlb	0	; () banked
  2942  000D9A  0100               	movlb	0	; () banked
  2943  000D9C  B9B8               	btfsc	OpenUSART@config& (0+255),4,b
  2944                           
  2945                           ; BSR set to: 0
  2946  000D9E  84AC               	bsf	4012,2,c	;volatile
  2947                           
  2948                           ; BSR set to: 0
  2949  000DA0  989E               	bcf	3998,4,c	;volatile
  2950                           
  2951                           ; BSR set to: 0
  2952  000DA2  0100               	movlb	0	; () banked
  2953  000DA4  0100               	movlb	0	; () banked
  2954  000DA6  BBB8               	btfsc	OpenUSART@config& (0+255),5,b
  2955                           
  2956                           ; BSR set to: 0
  2957  000DA8  86AB               	bsf	4011,3,c	;volatile
  2958                           
  2959                           ; BSR set to: 0
  2960                           
  2961                           ; BSR set to: 0
  2962  000DAA  0100               	movlb	0	; () banked
  2963  000DAC  0100               	movlb	0	; () banked
  2964  000DAE  ADB8               	btfss	OpenUSART@config& (0+255),6,b
  2965  000DB0  D002               	goto	l558
  2966                           
  2967                           ; BSR set to: 0
  2968  000DB2  8A9D               	bsf	3997,5,c	;volatile
  2969  000DB4  D001               	goto	l559
  2970  000DB6                     l558:
  2971                           
  2972                           ; BSR set to: 0
  2973  000DB6  9A9D               	bcf	3997,5,c	;volatile
  2974  000DB8                     l559:
  2975                           
  2976                           ; BSR set to: 0
  2977  000DB8  9A9E               	bcf	3998,5,c	;volatile
  2978                           
  2979                           ; BSR set to: 0
  2980  000DBA  0100               	movlb	0	; () banked
  2981  000DBC  0100               	movlb	0	; () banked
  2982  000DBE  AFB8               	btfss	OpenUSART@config& (0+255),7,b
  2983  000DC0  D002               	goto	l560
  2984                           
  2985                           ; BSR set to: 0
  2986  000DC2  889D               	bsf	3997,4,c	;volatile
  2987  000DC4  D001               	goto	l561
  2988  000DC6                     l560:
  2989                           
  2990                           ; BSR set to: 0
  2991  000DC6  989D               	bcf	3997,4,c	;volatile
  2992  000DC8                     l561:
  2993                           
  2994                           ; BSR set to: 0
  2995  000DC8  C0B3  FFAF         	movff	OpenUSART@spbrg,4015	;volatile
  2996                           
  2997                           ; BSR set to: 0
  2998  000DCC  0100               	movlb	0	; () banked
  2999  000DCE  C0B4  F0B5         	movff	OpenUSART@spbrg+1,??_OpenUSART
  3000  000DD2  C0B5  F0B6         	movff	??_OpenUSART,??_OpenUSART+1
  3001  000DD6  0100               	movlb	0	; () banked
  3002  000DD8  6BB7               	clrf	(??_OpenUSART+2)& (0+255),b
  3003  000DDA  0100               	movlb	0	; () banked
  3004  000DDC  51B6               	movf	(??_OpenUSART+1)& (0+255),w,b
  3005  000DDE  6EB0               	movwf	4016,c	;volatile
  3006                           
  3007                           ; BSR set to: 0
  3008  000DE0  8AAC               	bsf	4012,5,c	;volatile
  3009                           
  3010                           ; BSR set to: 0
  3011  000DE2  8EAB               	bsf	4011,7,c	;volatile
  3012                           
  3013                           ; BSR set to: 0
  3014  000DE4  9C94               	bcf	3988,6,c	;volatile
  3015                           
  3016                           ; BSR set to: 0
  3017  000DE6  8E94               	bsf	3988,7,c	;volatile
  3018                           
  3019                           ; BSR set to: 0
  3020  000DE8  A8AC               	btfss	4012,4,c	;volatile
  3021  000DEA  0012               	return	
  3022                           
  3023                           ; BSR set to: 0
  3024  000DEC  BEAC               	btfsc	4012,7,c	;volatile
  3025  000DEE  0012               	return	
  3026                           
  3027                           ; BSR set to: 0
  3028  000DF0  8C94               	bsf	3988,6,c	;volatile
  3029  000DF2  0012               	return	
  3030  000DF4                     __end_of_OpenUSART:
  3031                           	opt stack 0
  3032                           tblptru	equ	0xFF8
  3033                           prodh	equ	0xFF4
  3034                           prodl	equ	0xFF3
  3035                           intcon	equ	0xFF2
  3036                           postinc0	equ	0xFEE
  3037                           wreg	equ	0xFE8
  3038                           indf1	equ	0xFE7
  3039                           fsr1h	equ	0xFE2
  3040                           fsr1l	equ	0xFE1
  3041                           indf2	equ	0xFDF
  3042                           postinc2	equ	0xFDE
  3043                           postdec2	equ	0xFDD
  3044                           fsr2h	equ	0xFDA
  3045                           fsr2l	equ	0xFD9
  3046                           status	equ	0xFD8
  3047                           
  3048 ;; *************** function _OpenTimer1 *****************
  3049 ;; Defined at:
  3050 ;;		line 16 in file "C:\Program Files\Microchip\xc8\v1.30\sources\pic18\plib\Timers\t1open.c"
  3051 ;; Parameters:    Size  Location     Type
  3052 ;;  config          1    wreg     unsigned char 
  3053 ;; Auto vars:     Size  Location     Type
  3054 ;;  config          1   51[BANK0 ] unsigned char 
  3055 ;; Return value:  Size  Location     Type
  3056 ;;		None               void
  3057 ;; Registers used:
  3058 ;;		wreg, status,2, status,0
  3059 ;; Tracked objects:
  3060 ;;		On entry : 0/0
  3061 ;;		On exit  : 0/0
  3062 ;;		Unchanged: 0/0
  3063 ;; Data sizes:     COMRAM   BANK0   BANK1   BANK2   BANK3
  3064 ;;      Params:         0       0       0       0       0
  3065 ;;      Locals:         0       1       0       0       0
  3066 ;;      Temps:          0       0       0       0       0
  3067 ;;      Totals:         0       1       0       0       0
  3068 ;;Total ram usage:        1 bytes
  3069 ;; Hardware stack levels used:    1
  3070 ;; Hardware stack levels required when called:   10
  3071 ;; This function calls:
  3072 ;;		Nothing
  3073 ;; This function is called by:
  3074 ;;		_main
  3075 ;; This function uses a non-reentrant model
  3076 ;;
  3077                           
  3078                           	psect	text20
  3079  0014B4                     __ptext20:
  3080                           	opt stack 0
  3081  0014B4                     _OpenTimer1:
  3082                           	opt stack 19
  3083                           
  3084                           ; BSR set to: 0
  3085                           ;incstack = 0
  3086                           ;OpenTimer1@config stored from wreg
  3087  0014B4  CFE8 F0B3          	movff	wreg,OpenTimer1@config
  3088  0014B8  0100               	movlb	0	; () banked
  3089  0014BA  0100               	movlb	0	; () banked
  3090  0014BC  51B3               	movf	OpenTimer1@config& (0+255),w,b
  3091  0014BE  0B7E               	andlw	126
  3092  0014C0  6ECD               	movwf	4045,c	;volatile
  3093                           
  3094                           ; BSR set to: 0
  3095  0014C2  0100               	movlb	0	; () banked
  3096  0014C4  0100               	movlb	0	; () banked
  3097  0014C6  ADB3               	btfss	OpenTimer1@config& (0+255),6,b
  3098  0014C8  D002               	goto	l510
  3099                           
  3100                           ; BSR set to: 0
  3101  0014CA  8ECD               	bsf	4045,7,c	;volatile
  3102  0014CC  D001               	goto	l3219
  3103  0014CE                     l510:
  3104                           
  3105                           ; BSR set to: 0
  3106  0014CE  9ECD               	bcf	4045,7,c	;volatile
  3107  0014D0                     l3219:
  3108                           
  3109                           ; BSR set to: 0
  3110  0014D0  0E00               	movlw	0
  3111  0014D2  6ECF               	movwf	4047,c	;volatile
  3112  0014D4  0E00               	movlw	0
  3113  0014D6  6ECE               	movwf	4046,c	;volatile
  3114                           
  3115                           ; BSR set to: 0
  3116  0014D8  909E               	bcf	3998,0,c	;volatile
  3117                           
  3118                           ; BSR set to: 0
  3119  0014DA  0100               	movlb	0	; () banked
  3120  0014DC  0100               	movlb	0	; () banked
  3121  0014DE  AFB3               	btfss	OpenTimer1@config& (0+255),7,b
  3122  0014E0  D002               	goto	l512
  3123                           
  3124                           ; BSR set to: 0
  3125  0014E2  809D               	bsf	3997,0,c	;volatile
  3126  0014E4  D001               	goto	l513
  3127  0014E6                     l512:
  3128                           
  3129                           ; BSR set to: 0
  3130  0014E6  909D               	bcf	3997,0,c	;volatile
  3131  0014E8                     l513:
  3132                           
  3133                           ; BSR set to: 0
  3134  0014E8  80CD               	bsf	4045,0,c	;volatile
  3135                           
  3136                           ; BSR set to: 0
  3137  0014EA  0012               	return	
  3138  0014EC                     __end_of_OpenTimer1:
  3139                           	opt stack 0
  3140                           tblptru	equ	0xFF8
  3141                           prodh	equ	0xFF4
  3142                           prodl	equ	0xFF3
  3143                           intcon	equ	0xFF2
  3144                           postinc0	equ	0xFEE
  3145                           wreg	equ	0xFE8
  3146                           indf1	equ	0xFE7
  3147                           fsr1h	equ	0xFE2
  3148                           fsr1l	equ	0xFE1
  3149                           indf2	equ	0xFDF
  3150                           postinc2	equ	0xFDE
  3151                           postdec2	equ	0xFDD
  3152                           fsr2h	equ	0xFDA
  3153                           fsr2l	equ	0xFD9
  3154                           status	equ	0xFD8
  3155                           
  3156 ;; *************** function _OpenTimer0 *****************
  3157 ;; Defined at:
  3158 ;;		line 18 in file "C:\Program Files\Microchip\xc8\v1.30\sources\pic18\plib\Timers\t0open.c"
  3159 ;; Parameters:    Size  Location     Type
  3160 ;;  config          1    wreg     unsigned char 
  3161 ;; Auto vars:     Size  Location     Type
  3162 ;;  config          1   51[BANK0 ] unsigned char 
  3163 ;; Return value:  Size  Location     Type
  3164 ;;		None               void
  3165 ;; Registers used:
  3166 ;;		wreg, status,2, status,0
  3167 ;; Tracked objects:
  3168 ;;		On entry : 0/0
  3169 ;;		On exit  : 0/0
  3170 ;;		Unchanged: 0/0
  3171 ;; Data sizes:     COMRAM   BANK0   BANK1   BANK2   BANK3
  3172 ;;      Params:         0       0       0       0       0
  3173 ;;      Locals:         0       1       0       0       0
  3174 ;;      Temps:          0       0       0       0       0
  3175 ;;      Totals:         0       1       0       0       0
  3176 ;;Total ram usage:        1 bytes
  3177 ;; Hardware stack levels used:    1
  3178 ;; Hardware stack levels required when called:   10
  3179 ;; This function calls:
  3180 ;;		Nothing
  3181 ;; This function is called by:
  3182 ;;		_main
  3183 ;; This function uses a non-reentrant model
  3184 ;;
  3185                           
  3186                           	psect	text21
  3187  0015EC                     __ptext21:
  3188                           	opt stack 0
  3189  0015EC                     _OpenTimer0:
  3190                           	opt stack 19
  3191                           
  3192                           ; BSR set to: 0
  3193                           ;incstack = 0
  3194                           ;OpenTimer0@config stored from wreg
  3195  0015EC  CFE8 F0B3          	movff	wreg,OpenTimer0@config
  3196  0015F0  0100               	movlb	0	; () banked
  3197  0015F2  0100               	movlb	0	; () banked
  3198  0015F4  51B3               	movf	OpenTimer0@config& (0+255),w,b
  3199  0015F6  0B7F               	andlw	127
  3200  0015F8  6ED5               	movwf	4053,c	;volatile
  3201                           
  3202                           ; BSR set to: 0
  3203  0015FA  0E00               	movlw	0
  3204  0015FC  6ED7               	movwf	4055,c	;volatile
  3205                           
  3206                           ; BSR set to: 0
  3207  0015FE  0E00               	movlw	0
  3208  001600  6ED6               	movwf	4054,c	;volatile
  3209                           
  3210                           ; BSR set to: 0
  3211  001602  94F2               	bcf	intcon,2,c	;volatile
  3212                           
  3213                           ; BSR set to: 0
  3214  001604  0100               	movlb	0	; () banked
  3215  001606  0100               	movlb	0	; () banked
  3216  001608  AFB3               	btfss	OpenTimer0@config& (0+255),7,b
  3217  00160A  D002               	goto	l486
  3218                           
  3219                           ; BSR set to: 0
  3220  00160C  8AF2               	bsf	intcon,5,c	;volatile
  3221  00160E  D001               	goto	l487
  3222  001610                     l486:
  3223                           
  3224                           ; BSR set to: 0
  3225  001610  9AF2               	bcf	intcon,5,c	;volatile
  3226  001612                     l487:
  3227                           
  3228                           ; BSR set to: 0
  3229  001612  8ED5               	bsf	4053,7,c	;volatile
  3230                           
  3231                           ; BSR set to: 0
  3232  001614  0012               	return	
  3233  001616                     __end_of_OpenTimer0:
  3234                           	opt stack 0
  3235                           tblptru	equ	0xFF8
  3236                           prodh	equ	0xFF4
  3237                           prodl	equ	0xFF3
  3238                           intcon	equ	0xFF2
  3239                           postinc0	equ	0xFEE
  3240                           wreg	equ	0xFE8
  3241                           indf1	equ	0xFE7
  3242                           fsr1h	equ	0xFE2
  3243                           fsr1l	equ	0xFE1
  3244                           indf2	equ	0xFDF
  3245                           postinc2	equ	0xFDE
  3246                           postdec2	equ	0xFDD
  3247                           fsr2h	equ	0xFDA
  3248                           fsr2l	equ	0xFD9
  3249                           status	equ	0xFD8
  3250                           
  3251 ;; *************** function _OpenADC *****************
  3252 ;; Defined at:
  3253 ;;		line 68 in file "C:\Program Files\Microchip\xc8\v1.30\sources\pic18\plib\ADC\adcopen.c"
  3254 ;; Parameters:    Size  Location     Type
  3255 ;;  config          1    wreg     unsigned char 
  3256 ;;  config2         1   51[BANK0 ] unsigned char 
  3257 ;;  portconfig      1   52[BANK0 ] unsigned char 
  3258 ;; Auto vars:     Size  Location     Type
  3259 ;;  config          1   55[BANK0 ] unsigned char 
  3260 ;; Return value:  Size  Location     Type
  3261 ;;		None               void
  3262 ;; Registers used:
  3263 ;;		wreg, status,2, status,0
  3264 ;; Tracked objects:
  3265 ;;		On entry : 0/0
  3266 ;;		On exit  : 0/0
  3267 ;;		Unchanged: 0/0
  3268 ;; Data sizes:     COMRAM   BANK0   BANK1   BANK2   BANK3
  3269 ;;      Params:         0       2       0       0       0
  3270 ;;      Locals:         0       1       0       0       0
  3271 ;;      Temps:          0       2       0       0       0
  3272 ;;      Totals:         0       5       0       0       0
  3273 ;;Total ram usage:        5 bytes
  3274 ;; Hardware stack levels used:    1
  3275 ;; Hardware stack levels required when called:   10
  3276 ;; This function calls:
  3277 ;;		Nothing
  3278 ;; This function is called by:
  3279 ;;		_main
  3280 ;; This function uses a non-reentrant model
  3281 ;;
  3282                           
  3283                           	psect	text22
  3284  000E86                     __ptext22:
  3285                           	opt stack 0
  3286  000E86                     _OpenADC:
  3287                           	opt stack 19
  3288                           
  3289                           ; BSR set to: 0
  3290                           ;incstack = 0
  3291                           ;OpenADC@config stored from wreg
  3292  000E86  CFE8 F0B7          	movff	wreg,OpenADC@config
  3293  000E8A  0E00               	movlw	0
  3294  000E8C  6EC2               	movwf	4034,c	;volatile
  3295  000E8E  0E00               	movlw	0
  3296  000E90  6EC0               	movwf	4032,c	;volatile
  3297  000E92  0100               	movlb	0	; () banked
  3298  000E94  0100               	movlb	0	; () banked
  3299  000E96  90D8               	bcf	status,0,c
  3300  000E98  31B3               	rrcf	OpenADC@config2& (0+255),w,b
  3301  000E9A  0B3C               	andlw	60
  3302  000E9C  6EC2               	movwf	4034,c	;volatile
  3303                           
  3304                           ; BSR set to: 0
  3305  000E9E  C0B3  F0B5         	movff	OpenADC@config2,??_OpenADC
  3306  000EA2  0100               	movlb	0	; () banked
  3307  000EA4  3BB5               	swapf	??_OpenADC& (0+255),f,b
  3308  000EA6  0EF0               	movlw	240
  3309  000EA8  17B5               	andwf	??_OpenADC& (0+255),f,b
  3310  000EAA  0E30               	movlw	48
  3311  000EAC  0100               	movlb	0	; () banked
  3312  000EAE  17B5               	andwf	??_OpenADC& (0+255),f,b
  3313  000EB0  0100               	movlb	0	; () banked
  3314  000EB2  0100               	movlb	0	; () banked
  3315  000EB4  51B4               	movf	OpenADC@portconfig& (0+255),w,b
  3316  000EB6  0B0F               	andlw	15
  3317  000EB8  0100               	movlb	0	; () banked
  3318  000EBA  11B5               	iorwf	??_OpenADC& (0+255),w,b
  3319  000EBC  6EC1               	movwf	4033,c	;volatile
  3320                           
  3321                           ; BSR set to: 0
  3322  000EBE  C0B7  F0B5         	movff	OpenADC@config,??_OpenADC
  3323  000EC2  0100               	movlb	0	; () banked
  3324  000EC4  90D8               	bcf	status,0,c
  3325  000EC6  37B5               	rlcf	??_OpenADC& (0+255),f,b
  3326  000EC8  0100               	movlb	0	; () banked
  3327  000ECA  90D8               	bcf	status,0,c
  3328  000ECC  37B5               	rlcf	??_OpenADC& (0+255),f,b
  3329  000ECE  0E38               	movlw	56
  3330  000ED0  0100               	movlb	0	; () banked
  3331  000ED2  17B5               	andwf	??_OpenADC& (0+255),f,b
  3332  000ED4  C0B7  F0B6         	movff	OpenADC@config,??_OpenADC+1
  3333  000ED8  0100               	movlb	0	; () banked
  3334  000EDA  3BB6               	swapf	(??_OpenADC+1)& (0+255),f,b
  3335  000EDC  0E0F               	movlw	15
  3336  000EDE  17B6               	andwf	(??_OpenADC+1)& (0+255),f,b
  3337  000EE0  0E07               	movlw	7
  3338  000EE2  0100               	movlb	0	; () banked
  3339  000EE4  17B6               	andwf	(??_OpenADC+1)& (0+255),f,b
  3340  000EE6  0100               	movlb	0	; () banked
  3341  000EE8  0100               	movlb	0	; () banked
  3342  000EEA  51B7               	movf	OpenADC@config& (0+255),w,b
  3343  000EEC  0B80               	andlw	128
  3344  000EEE  0100               	movlb	0	; () banked
  3345  000EF0  11B6               	iorwf	(??_OpenADC+1)& (0+255),w,b
  3346  000EF2  0100               	movlb	0	; () banked
  3347  000EF4  11B5               	iorwf	??_OpenADC& (0+255),w,b
  3348  000EF6  6EC0               	movwf	4032,c	;volatile
  3349                           
  3350                           ; BSR set to: 0
  3351  000EF8  0100               	movlb	0	; () banked
  3352  000EFA  0100               	movlb	0	; () banked
  3353  000EFC  AFB3               	btfss	OpenADC@config2& (0+255),7,b
  3354  000EFE  D003               	goto	l460
  3355                           
  3356                           ; BSR set to: 0
  3357  000F00  9C9E               	bcf	3998,6,c	;volatile
  3358  000F02  8C9D               	bsf	3997,6,c	;volatile
  3359  000F04  8CF2               	bsf	intcon,6,c	;volatile
  3360  000F06                     l460:
  3361                           
  3362                           ; BSR set to: 0
  3363  000F06  80C2               	bsf	4034,0,c	;volatile
  3364                           
  3365                           ; BSR set to: 0
  3366  000F08  0012               	return	
  3367  000F0A                     __end_of_OpenADC:
  3368                           	opt stack 0
  3369                           tblptru	equ	0xFF8
  3370                           prodh	equ	0xFF4
  3371                           prodl	equ	0xFF3
  3372                           intcon	equ	0xFF2
  3373                           postinc0	equ	0xFEE
  3374                           wreg	equ	0xFE8
  3375                           indf1	equ	0xFE7
  3376                           fsr1h	equ	0xFE2
  3377                           fsr1l	equ	0xFE1
  3378                           indf2	equ	0xFDF
  3379                           postinc2	equ	0xFDE
  3380                           postdec2	equ	0xFDD
  3381                           fsr2h	equ	0xFDA
  3382                           fsr2l	equ	0xFD9
  3383                           status	equ	0xFD8
  3384                           
  3385 ;; *************** function _InterruptHandlerLow *****************
  3386 ;; Defined at:
  3387 ;;		line 140 in file "../src/interrupts.c"
  3388 ;; Parameters:    Size  Location     Type
  3389 ;;		None
  3390 ;; Auto vars:     Size  Location     Type
  3391 ;;		None
  3392 ;; Return value:  Size  Location     Type
  3393 ;;		None               void
  3394 ;; Registers used:
  3395 ;;		wreg, fsr1l, fsr1h, fsr2l, fsr2h, status,2, status,0, prodl, prodh, cstack
  3396 ;; Tracked objects:
  3397 ;;		On entry : 0/0
  3398 ;;		On exit  : 0/0
  3399 ;;		Unchanged: 0/0
  3400 ;; Data sizes:     COMRAM   BANK0   BANK1   BANK2   BANK3
  3401 ;;      Params:         0       0       0       0       0
  3402 ;;      Locals:         0       0       0       0       0
  3403 ;;      Temps:         17       0       0       0       0
  3404 ;;      Totals:        17       0       0       0       0
  3405 ;;Total ram usage:       17 bytes
  3406 ;; Hardware stack levels used:    1
  3407 ;; Hardware stack levels required when called:    9
  3408 ;; This function calls:
  3409 ;;		_timer1_int_handler
  3410 ;;		_uart_recv_int_handler
  3411 ;; This function is called by:
  3412 ;;		Interrupt level 1
  3413 ;; This function uses a non-reentrant model
  3414 ;;
  3415                           
  3416                           	psect	intcodelo
  3417  000018                     __pintcodelo:
  3418                           	opt stack 0
  3419  000018                     _InterruptHandlerLow:
  3420                           	opt stack 16
  3421                           
  3422                           ; BSR set to: 0
  3423                           ;incstack = 0
  3424  000018  CFD8 F04D          	movff	status,??_InterruptHandlerLow
  3425  00001C  CFE8 F04E          	movff	wreg,??_InterruptHandlerLow+1
  3426  000020  CFE0 F04F          	movff	bsr,??_InterruptHandlerLow+2
  3427  000024  CFFA F050          	movff	pclath,??_InterruptHandlerLow+3
  3428  000028  CFFB F051          	movff	pclatu,??_InterruptHandlerLow+4
  3429  00002C  CFE9 F052          	movff	fsr0l,??_InterruptHandlerLow+5
  3430  000030  CFEA F053          	movff	fsr0h,??_InterruptHandlerLow+6
  3431  000034  CFE1 F054          	movff	fsr1l,??_InterruptHandlerLow+7
  3432  000038  CFE2 F055          	movff	fsr1h,??_InterruptHandlerLow+8
  3433  00003C  CFD9 F056          	movff	fsr2l,??_InterruptHandlerLow+9
  3434  000040  CFDA F057          	movff	fsr2h,??_InterruptHandlerLow+10
  3435  000044  CFF3 F058          	movff	prodl,??_InterruptHandlerLow+11
  3436  000048  CFF4 F059          	movff	prodh,??_InterruptHandlerLow+12
  3437  00004C  CFF6 F05A          	movff	tblptrl,??_InterruptHandlerLow+13
  3438  000050  CFF7 F05B          	movff	tblptrh,??_InterruptHandlerLow+14
  3439  000054  CFF8 F05C          	movff	tblptru,??_InterruptHandlerLow+15
  3440  000058  CFF5 F05D          	movff	tablat,??_InterruptHandlerLow+16
  3441                           
  3442                           ;interrupts.c: 143: if (PIR1bits.TMR1IF) {
  3443  00005C  A09E               	btfss	3998,0,c	;volatile
  3444  00005E  D003               	goto	i1l3631
  3445                           
  3446                           ;interrupts.c: 144: PIR1bits.TMR1IF = 0;
  3447  000060  909E               	bcf	3998,0,c	;volatile
  3448                           
  3449                           ;interrupts.c: 145: timer1_int_handler();
  3450  000062  ECC7  F00A         	call	_timer1_int_handler	;wreg free
  3451  000066                     i1l3631:
  3452                           
  3453                           ;interrupts.c: 146: }
  3454                           ;interrupts.c: 149: if (PIR1bits.RCIF) {
  3455  000066  AA9E               	btfss	3998,5,c	;volatile
  3456  000068  D003               	goto	i1l63
  3457                           
  3458                           ;interrupts.c: 150: PIR1bits.RCIF = 0;
  3459  00006A  9A9E               	bcf	3998,5,c	;volatile
  3460                           
  3461                           ;interrupts.c: 151: uart_recv_int_handler();
  3462  00006C  EC15  F006         	call	_uart_recv_int_handler	;wreg free
  3463  000070                     i1l63:
  3464  000070  C05D  FFF5         	movff	??_InterruptHandlerLow+16,tablat
  3465  000074  C05C  FFF8         	movff	??_InterruptHandlerLow+15,tblptru
  3466  000078  C05B  FFF7         	movff	??_InterruptHandlerLow+14,tblptrh
  3467  00007C  C05A  FFF6         	movff	??_InterruptHandlerLow+13,tblptrl
  3468  000080  C059  FFF4         	movff	??_InterruptHandlerLow+12,prodh
  3469  000084  C058  FFF3         	movff	??_InterruptHandlerLow+11,prodl
  3470  000088  C057  FFDA         	movff	??_InterruptHandlerLow+10,fsr2h
  3471  00008C  C056  FFD9         	movff	??_InterruptHandlerLow+9,fsr2l
  3472  000090  C055  FFE2         	movff	??_InterruptHandlerLow+8,fsr1h
  3473  000094  C054  FFE1         	movff	??_InterruptHandlerLow+7,fsr1l
  3474  000098  C053  FFEA         	movff	??_InterruptHandlerLow+6,fsr0h
  3475  00009C  C052  FFE9         	movff	??_InterruptHandlerLow+5,fsr0l
  3476  0000A0  C051  FFFB         	movff	??_InterruptHandlerLow+4,pclatu
  3477  0000A4  C050  FFFA         	movff	??_InterruptHandlerLow+3,pclath
  3478  0000A8  C04F  FFE0         	movff	??_InterruptHandlerLow+2,bsr
  3479  0000AC  C04E  FFE8         	movff	??_InterruptHandlerLow+1,wreg
  3480  0000B0  C04D  FFD8         	movff	??_InterruptHandlerLow,status
  3481  0000B4  0010               	retfie	
  3482  0000B6                     __end_of_InterruptHandlerLow:
  3483                           	opt stack 0
  3484                           pclatu	equ	0xFFB
  3485                           pclath	equ	0xFFA
  3486                           tblptru	equ	0xFF8
  3487                           tblptrh	equ	0xFF7
  3488                           tblptrl	equ	0xFF6
  3489                           tablat	equ	0xFF5
  3490                           prodh	equ	0xFF4
  3491                           prodl	equ	0xFF3
  3492                           intcon	equ	0xFF2
  3493                           postinc0	equ	0xFEE
  3494                           fsr0h	equ	0xFEA
  3495                           fsr0l	equ	0xFE9
  3496                           wreg	equ	0xFE8
  3497                           indf1	equ	0xFE7
  3498                           fsr1h	equ	0xFE2
  3499                           fsr1l	equ	0xFE1
  3500                           bsr	equ	0xFE0
  3501                           indf2	equ	0xFDF
  3502                           postinc2	equ	0xFDE
  3503                           postdec2	equ	0xFDD
  3504                           fsr2h	equ	0xFDA
  3505                           fsr2l	equ	0xFD9
  3506                           status	equ	0xFD8
  3507                           
  3508 ;; *************** function _uart_recv_int_handler *****************
  3509 ;; Defined at:
  3510 ;;		line 11 in file "../src/my_uart.c"
  3511 ;; Parameters:    Size  Location     Type
  3512 ;;		None
  3513 ;; Auto vars:     Size  Location     Type
  3514 ;;		None
  3515 ;; Return value:  Size  Location     Type
  3516 ;;		None               void
  3517 ;; Registers used:
  3518 ;;		wreg, fsr1l, fsr1h, fsr2l, fsr2h, status,2, status,0, prodl, prodh, cstack
  3519 ;; Tracked objects:
  3520 ;;		On entry : 0/0
  3521 ;;		On exit  : 0/0
  3522 ;;		Unchanged: 0/0
  3523 ;; Data sizes:     COMRAM   BANK0   BANK1   BANK2   BANK3
  3524 ;;      Params:         0       0       0       0       0
  3525 ;;      Locals:         0       0       0       0       0
  3526 ;;      Temps:          1       0       0       0       0
  3527 ;;      Totals:         1       0       0       0       0
  3528 ;;Total ram usage:        1 bytes
  3529 ;; Hardware stack levels used:    1
  3530 ;; Hardware stack levels required when called:    8
  3531 ;; This function calls:
  3532 ;;		_ReadUSART
  3533 ;;		_ToMainLow_sendmsg
  3534 ;; This function is called by:
  3535 ;;		_InterruptHandlerLow
  3536 ;; This function uses a non-reentrant model
  3537 ;;
  3538                           
  3539                           	psect	text24
  3540  000C2A                     __ptext24:
  3541                           	opt stack 0
  3542  000C2A                     _uart_recv_int_handler:
  3543                           	opt stack 16
  3544                           
  3545                           ;my_uart.c: 20: if ((PIR1bits.RCIF)) {
  3546                           
  3547                           ;incstack = 0
  3548  000C2A  AA9E               	btfss	3998,5,c	;volatile
  3549  000C2C  D03C               	goto	i1l3619
  3550                           
  3551                           ;my_uart.c: 21: uc_ptr->buffer[uc_ptr->buflen] = ReadUSART();
  3552  000C2E  EE20 F004          	lfsr	2,4
  3553  000C32  5060               	movf	_uc_ptr,w,c
  3554  000C34  26D9               	addwf	fsr2l,f,c
  3555  000C36  5061               	movf	_uc_ptr+1,w,c
  3556  000C38  22DA               	addwfc	fsr2h,f,c
  3557  000C3A  50DF               	movf	indf2,w,c
  3558  000C3C  6E4A               	movwf	??_uart_recv_int_handler& (0+255),c
  3559  000C3E  504A               	movf	??_uart_recv_int_handler,w,c
  3560  000C40  0D01               	mullw	1
  3561  000C42  50F3               	movf	prodl,w,c
  3562  000C44  2460               	addwf	_uc_ptr,w,c
  3563  000C46  6ED9               	movwf	fsr2l,c
  3564  000C48  50F4               	movf	prodh,w,c
  3565  000C4A  2061               	addwfc	_uc_ptr+1,w,c
  3566  000C4C  6EDA               	movwf	fsr2h,c
  3567  000C4E  EC51  F00B         	call	_ReadUSART	;wreg free
  3568  000C52  6EDF               	movwf	indf2,c
  3569                           
  3570                           ;my_uart.c: 25: uc_ptr->buflen++;
  3571  000C54  EE20 F004          	lfsr	2,4
  3572  000C58  5060               	movf	_uc_ptr,w,c
  3573  000C5A  26D9               	addwf	fsr2l,f,c
  3574  000C5C  5061               	movf	_uc_ptr+1,w,c
  3575  000C5E  22DA               	addwfc	fsr2h,f,c
  3576  000C60  2ADF               	incf	indf2,f,c
  3577                           
  3578                           ;my_uart.c: 27: if (uc_ptr->buflen == 4) {
  3579  000C62  EE20 F004          	lfsr	2,4
  3580  000C66  5060               	movf	_uc_ptr,w,c
  3581  000C68  26D9               	addwf	fsr2l,f,c
  3582  000C6A  5061               	movf	_uc_ptr+1,w,c
  3583  000C6C  22DA               	addwfc	fsr2h,f,c
  3584  000C6E  0E04               	movlw	4
  3585  000C70  62DF               	cpfseq	indf2,c
  3586  000C72  D019               	goto	i1l3619
  3587                           
  3588                           ;my_uart.c: 28: ToMainLow_sendmsg(uc_ptr->buflen, 31, (void *) uc_ptr->buffer);
  3589  000C74  6E4A               	movwf	??_uart_recv_int_handler& (0+255),c
  3590  000C76  0E1F               	movlw	31
  3591  000C78  6E46               	movwf	ToMainLow_sendmsg@msgtype,c
  3592  000C7A  504A               	movf	??_uart_recv_int_handler& (0+255),w,c
  3593  000C7C  C061  F048         	movff	_uc_ptr+1,ToMainLow_sendmsg@data+1
  3594  000C80  C060  F047         	movff	_uc_ptr,ToMainLow_sendmsg@data
  3595  000C84  EE20 F004          	lfsr	2,4
  3596  000C88  5060               	movf	_uc_ptr,w,c
  3597  000C8A  26D9               	addwf	fsr2l,f,c
  3598  000C8C  5061               	movf	_uc_ptr+1,w,c
  3599  000C8E  22DA               	addwfc	fsr2h,f,c
  3600  000C90  50DF               	movf	indf2,w,c
  3601  000C92  EC1F  F00B         	call	_ToMainLow_sendmsg
  3602                           
  3603                           ;my_uart.c: 29: uc_ptr->buflen = 0;
  3604  000C96  EE20 F004          	lfsr	2,4
  3605  000C9A  5060               	movf	_uc_ptr,w,c
  3606  000C9C  26D9               	addwf	fsr2l,f,c
  3607  000C9E  5061               	movf	_uc_ptr+1,w,c
  3608  000CA0  22DA               	addwfc	fsr2h,f,c
  3609  000CA2  0E00               	movlw	0
  3610  000CA4  6EDF               	movwf	indf2,c
  3611  000CA6                     i1l3619:
  3612                           
  3613                           ;my_uart.c: 30: }
  3614                           ;my_uart.c: 31: }
  3615                           ;my_uart.c: 38: if (USART_Status.OVERRUN_ERROR == 1) {
  3616  000CA6  A62B               	btfss	_USART_Status,3,c
  3617  000CA8  0012               	return	
  3618                           
  3619                           ;my_uart.c: 43: RCSTAbits.CREN = 0;
  3620  000CAA  98AB               	bcf	4011,4,c	;volatile
  3621                           
  3622                           ;my_uart.c: 44: RCSTAbits.CREN = 1;
  3623  000CAC  88AB               	bsf	4011,4,c	;volatile
  3624                           
  3625                           ;my_uart.c: 45: ToMainLow_sendmsg(0, 30, (void *) 0);
  3626  000CAE  6E4A               	movwf	??_uart_recv_int_handler& (0+255),c
  3627  000CB0  0E1E               	movlw	30
  3628  000CB2  6E46               	movwf	ToMainLow_sendmsg@msgtype,c
  3629  000CB4  504A               	movf	??_uart_recv_int_handler& (0+255),w,c
  3630  000CB6  0E00               	movlw	0
  3631  000CB8  6E48               	movwf	ToMainLow_sendmsg@data+1,c
  3632  000CBA  0E00               	movlw	0
  3633  000CBC  6E47               	movwf	ToMainLow_sendmsg@data,c
  3634  000CBE  0E00               	movlw	0
  3635  000CC0  EC1F  F00B         	call	_ToMainLow_sendmsg
  3636  000CC4  0012               	return	
  3637  000CC6                     __end_of_uart_recv_int_handler:
  3638                           	opt stack 0
  3639                           pclatu	equ	0xFFB
  3640                           pclath	equ	0xFFA
  3641                           tblptru	equ	0xFF8
  3642                           tblptrh	equ	0xFF7
  3643                           tblptrl	equ	0xFF6
  3644                           tablat	equ	0xFF5
  3645                           prodh	equ	0xFF4
  3646                           prodl	equ	0xFF3
  3647                           intcon	equ	0xFF2
  3648                           postinc0	equ	0xFEE
  3649                           fsr0h	equ	0xFEA
  3650                           fsr0l	equ	0xFE9
  3651                           wreg	equ	0xFE8
  3652                           indf1	equ	0xFE7
  3653                           fsr1h	equ	0xFE2
  3654                           fsr1l	equ	0xFE1
  3655                           bsr	equ	0xFE0
  3656                           indf2	equ	0xFDF
  3657                           postinc2	equ	0xFDE
  3658                           postdec2	equ	0xFDD
  3659                           fsr2h	equ	0xFDA
  3660                           fsr2l	equ	0xFD9
  3661                           status	equ	0xFD8
  3662                           
  3663 ;; *************** function _ReadUSART *****************
  3664 ;; Defined at:
  3665 ;;		line 15 in file "C:\Program Files\Microchip\xc8\v1.30\sources\pic18\plib\USART\uread.c"
  3666 ;; Parameters:    Size  Location     Type
  3667 ;;		None
  3668 ;; Auto vars:     Size  Location     Type
  3669 ;;  data            1    0[COMRAM] unsigned char 
  3670 ;; Return value:  Size  Location     Type
  3671 ;;                  1    wreg      unsigned char 
  3672 ;; Registers used:
  3673 ;;		wreg, status,2, status,0
  3674 ;; Tracked objects:
  3675 ;;		On entry : 0/0
  3676 ;;		On exit  : 0/0
  3677 ;;		Unchanged: 0/0
  3678 ;; Data sizes:     COMRAM   BANK0   BANK1   BANK2   BANK3
  3679 ;;      Params:         0       0       0       0       0
  3680 ;;      Locals:         1       0       0       0       0
  3681 ;;      Temps:          0       0       0       0       0
  3682 ;;      Totals:         1       0       0       0       0
  3683 ;;Total ram usage:        1 bytes
  3684 ;; Hardware stack levels used:    1
  3685 ;; Hardware stack levels required when called:    5
  3686 ;; This function calls:
  3687 ;;		Nothing
  3688 ;; This function is called by:
  3689 ;;		_uart_recv_int_handler
  3690 ;; This function uses a non-reentrant model
  3691 ;;
  3692                           
  3693                           	psect	text25
  3694  0016A2                     __ptext25:
  3695                           	opt stack 0
  3696  0016A2                     _ReadUSART:
  3697                           	opt stack 18
  3698                           
  3699                           ;incstack = 0
  3700  0016A2  0EF2               	movlw	242
  3701  0016A4  162B               	andwf	_USART_Status,f,c
  3702  0016A6  ACAB               	btfss	4011,6,c	;volatile
  3703  0016A8  D003               	goto	i1l572
  3704  0016AA  902B               	bcf	_USART_Status,0,c
  3705  0016AC  B0AB               	btfsc	4011,0,c	;volatile
  3706  0016AE  802B               	bsf	_USART_Status,0,c
  3707  0016B0                     i1l572:
  3708  0016B0  B4AB               	btfsc	4011,2,c	;volatile
  3709  0016B2  842B               	bsf	_USART_Status,2,c
  3710  0016B4  B2AB               	btfsc	4011,1,c	;volatile
  3711  0016B6  862B               	bsf	_USART_Status,3,c
  3712  0016B8  CFAE F030          	movff	4014,ReadUSART@data	;volatile
  3713  0016BC  5030               	movf	ReadUSART@data,w,c
  3714  0016BE  0012               	return	
  3715  0016C0                     __end_of_ReadUSART:
  3716                           	opt stack 0
  3717                           pclatu	equ	0xFFB
  3718                           pclath	equ	0xFFA
  3719                           tblptru	equ	0xFF8
  3720                           tblptrh	equ	0xFF7
  3721                           tblptrl	equ	0xFF6
  3722                           tablat	equ	0xFF5
  3723                           prodh	equ	0xFF4
  3724                           prodl	equ	0xFF3
  3725                           intcon	equ	0xFF2
  3726                           postinc0	equ	0xFEE
  3727                           fsr0h	equ	0xFEA
  3728                           fsr0l	equ	0xFE9
  3729                           wreg	equ	0xFE8
  3730                           indf1	equ	0xFE7
  3731                           fsr1h	equ	0xFE2
  3732                           fsr1l	equ	0xFE1
  3733                           bsr	equ	0xFE0
  3734                           indf2	equ	0xFDF
  3735                           postinc2	equ	0xFDE
  3736                           postdec2	equ	0xFDD
  3737                           fsr2h	equ	0xFDA
  3738                           fsr2l	equ	0xFD9
  3739                           status	equ	0xFD8
  3740                           
  3741 ;; *************** function _timer1_int_handler *****************
  3742 ;; Defined at:
  3743 ;;		line 47 in file "../src/user_interrupts.c"
  3744 ;; Parameters:    Size  Location     Type
  3745 ;;		None
  3746 ;; Auto vars:     Size  Location     Type
  3747 ;;  result          2   27[COMRAM] unsigned int 
  3748 ;; Return value:  Size  Location     Type
  3749 ;;		None               void
  3750 ;; Registers used:
  3751 ;;		wreg, fsr1l, fsr1h, fsr2l, fsr2h, status,2, status,0, prodl, prodh, cstack
  3752 ;; Tracked objects:
  3753 ;;		On entry : 0/0
  3754 ;;		On exit  : 0/0
  3755 ;;		Unchanged: 0/0
  3756 ;; Data sizes:     COMRAM   BANK0   BANK1   BANK2   BANK3
  3757 ;;      Params:         0       0       0       0       0
  3758 ;;      Locals:         2       0       0       0       0
  3759 ;;      Temps:          1       0       0       0       0
  3760 ;;      Totals:         3       0       0       0       0
  3761 ;;Total ram usage:        3 bytes
  3762 ;; Hardware stack levels used:    1
  3763 ;; Hardware stack levels required when called:    8
  3764 ;; This function calls:
  3765 ;;		_ReadTimer1
  3766 ;;		_ToMainLow_sendmsg
  3767 ;;		_WriteTimer1
  3768 ;; This function is called by:
  3769 ;;		_InterruptHandlerLow
  3770 ;; This function uses a non-reentrant model
  3771 ;;
  3772                           
  3773                           	psect	text26
  3774  00158E                     __ptext26:
  3775                           	opt stack 0
  3776  00158E                     _timer1_int_handler:
  3777                           	opt stack 16
  3778                           
  3779                           ;user_interrupts.c: 48: unsigned int result;
  3780                           ;user_interrupts.c: 54: result = ReadTimer1();
  3781                           
  3782                           ;incstack = 0
  3783  00158E  EC86  F00B         	call	_ReadTimer1	;wreg free
  3784  001592  C030  F04B         	movff	?_ReadTimer1,timer1_int_handler@result
  3785  001596  C031  F04C         	movff	?_ReadTimer1+1,timer1_int_handler@result+1
  3786                           
  3787                           ;user_interrupts.c: 55: ToMainLow_sendmsg(0, 11, (void *) 0);
  3788  00159A  6E4A               	movwf	??_timer1_int_handler& (0+255),c
  3789  00159C  0E0B               	movlw	11
  3790  00159E  6E46               	movwf	ToMainLow_sendmsg@msgtype,c
  3791  0015A0  504A               	movf	??_timer1_int_handler& (0+255),w,c
  3792  0015A2  0E00               	movlw	0
  3793  0015A4  6E48               	movwf	ToMainLow_sendmsg@data+1,c
  3794  0015A6  0E00               	movlw	0
  3795  0015A8  6E47               	movwf	ToMainLow_sendmsg@data,c
  3796  0015AA  0E00               	movlw	0
  3797  0015AC  EC1F  F00B         	call	_ToMainLow_sendmsg
  3798                           
  3799                           ;user_interrupts.c: 58: WriteTimer1(0);
  3800  0015B0  0E00               	movlw	0
  3801  0015B2  6E31               	movwf	WriteTimer1@timer1+1,c
  3802  0015B4  0E00               	movlw	0
  3803  0015B6  6E30               	movwf	WriteTimer1@timer1,c
  3804  0015B8  EC7D  F00B         	call	_WriteTimer1	;wreg free
  3805  0015BC  0012               	return	
  3806  0015BE                     __end_of_timer1_int_handler:
  3807                           	opt stack 0
  3808                           pclatu	equ	0xFFB
  3809                           pclath	equ	0xFFA
  3810                           tblptru	equ	0xFF8
  3811                           tblptrh	equ	0xFF7
  3812                           tblptrl	equ	0xFF6
  3813                           tablat	equ	0xFF5
  3814                           prodh	equ	0xFF4
  3815                           prodl	equ	0xFF3
  3816                           intcon	equ	0xFF2
  3817                           postinc0	equ	0xFEE
  3818                           fsr0h	equ	0xFEA
  3819                           fsr0l	equ	0xFE9
  3820                           wreg	equ	0xFE8
  3821                           indf1	equ	0xFE7
  3822                           fsr1h	equ	0xFE2
  3823                           fsr1l	equ	0xFE1
  3824                           bsr	equ	0xFE0
  3825                           indf2	equ	0xFDF
  3826                           postinc2	equ	0xFDE
  3827                           postdec2	equ	0xFDD
  3828                           fsr2h	equ	0xFDA
  3829                           fsr2l	equ	0xFD9
  3830                           status	equ	0xFD8
  3831                           
  3832 ;; *************** function _WriteTimer1 *****************
  3833 ;; Defined at:
  3834 ;;		line 14 in file "C:\Program Files\Microchip\xc8\v1.30\sources\pic18\plib\Timers\t1write.c"
  3835 ;; Parameters:    Size  Location     Type
  3836 ;;  timer1          2    0[COMRAM] unsigned int 
  3837 ;; Auto vars:     Size  Location     Type
  3838 ;;  timer           2    2[COMRAM] struct Timers
  3839 ;; Return value:  Size  Location     Type
  3840 ;;		None               void
  3841 ;; Registers used:
  3842 ;;		None
  3843 ;; Tracked objects:
  3844 ;;		On entry : 0/0
  3845 ;;		On exit  : 0/0
  3846 ;;		Unchanged: 0/0
  3847 ;; Data sizes:     COMRAM   BANK0   BANK1   BANK2   BANK3
  3848 ;;      Params:         2       0       0       0       0
  3849 ;;      Locals:         2       0       0       0       0
  3850 ;;      Temps:          0       0       0       0       0
  3851 ;;      Totals:         4       0       0       0       0
  3852 ;;Total ram usage:        4 bytes
  3853 ;; Hardware stack levels used:    1
  3854 ;; Hardware stack levels required when called:    5
  3855 ;; This function calls:
  3856 ;;		Nothing
  3857 ;; This function is called by:
  3858 ;;		_timer1_int_handler
  3859 ;; This function uses a non-reentrant model
  3860 ;;
  3861                           
  3862                           	psect	text27
  3863  0016FA                     __ptext27:
  3864                           	opt stack 0
  3865  0016FA                     _WriteTimer1:
  3866                           	opt stack 18
  3867                           
  3868                           ;incstack = 0
  3869  0016FA  C030  F032         	movff	WriteTimer1@timer1,WriteTimer1@timer
  3870  0016FE  C031  F033         	movff	WriteTimer1@timer1+1,WriteTimer1@timer+1
  3871  001702  C033  FFCF         	movff	WriteTimer1@timer+1,4047	;volatile
  3872  001706  C032  FFCE         	movff	WriteTimer1@timer,4046	;volatile
  3873  00170A  0012               	return	
  3874  00170C                     __end_of_WriteTimer1:
  3875                           	opt stack 0
  3876                           pclatu	equ	0xFFB
  3877                           pclath	equ	0xFFA
  3878                           tblptru	equ	0xFF8
  3879                           tblptrh	equ	0xFF7
  3880                           tblptrl	equ	0xFF6
  3881                           tablat	equ	0xFF5
  3882                           prodh	equ	0xFF4
  3883                           prodl	equ	0xFF3
  3884                           intcon	equ	0xFF2
  3885                           postinc0	equ	0xFEE
  3886                           fsr0h	equ	0xFEA
  3887                           fsr0l	equ	0xFE9
  3888                           wreg	equ	0xFE8
  3889                           indf1	equ	0xFE7
  3890                           fsr1h	equ	0xFE2
  3891                           fsr1l	equ	0xFE1
  3892                           bsr	equ	0xFE0
  3893                           indf2	equ	0xFDF
  3894                           postinc2	equ	0xFDE
  3895                           postdec2	equ	0xFDD
  3896                           fsr2h	equ	0xFDA
  3897                           fsr2l	equ	0xFD9
  3898                           status	equ	0xFD8
  3899                           
  3900 ;; *************** function _ToMainLow_sendmsg *****************
  3901 ;; Defined at:
  3902 ;;		line 103 in file "../src/messages.c"
  3903 ;; Parameters:    Size  Location     Type
  3904 ;;  length          1    wreg     unsigned char 
  3905 ;;  msgtype         1   22[COMRAM] unsigned char 
  3906 ;;  data            2   23[COMRAM] PTR void 
  3907 ;;		 -> NULL(0), main@uc(5), 
  3908 ;; Auto vars:     Size  Location     Type
  3909 ;;  length          1   25[COMRAM] unsigned char 
  3910 ;; Return value:  Size  Location     Type
  3911 ;;                  1    wreg      char 
  3912 ;; Registers used:
  3913 ;;		wreg, fsr1l, fsr1h, fsr2l, fsr2h, status,2, status,0, prodl, prodh, cstack
  3914 ;; Tracked objects:
  3915 ;;		On entry : 0/0
  3916 ;;		On exit  : 0/0
  3917 ;;		Unchanged: 0/0
  3918 ;; Data sizes:     COMRAM   BANK0   BANK1   BANK2   BANK3
  3919 ;;      Params:         3       0       0       0       0
  3920 ;;      Locals:         1       0       0       0       0
  3921 ;;      Temps:          0       0       0       0       0
  3922 ;;      Totals:         4       0       0       0       0
  3923 ;;Total ram usage:        4 bytes
  3924 ;; Hardware stack levels used:    1
  3925 ;; Hardware stack levels required when called:    7
  3926 ;; This function calls:
  3927 ;;		_send_msg
  3928 ;; This function is called by:
  3929 ;;		_uart_recv_int_handler
  3930 ;;		_timer1_int_handler
  3931 ;; This function uses a non-reentrant model
  3932 ;;
  3933                           
  3934                           	psect	text28
  3935  00163E                     __ptext28:
  3936                           	opt stack 0
  3937  00163E                     _ToMainLow_sendmsg:
  3938                           	opt stack 16
  3939                           
  3940                           ;incstack = 0
  3941                           ;ToMainLow_sendmsg@length stored from wreg
  3942  00163E  CFE8 F049          	movff	wreg,ToMainLow_sendmsg@length
  3943                           
  3944                           ;messages.c: 109: return (send_msg(&ToMainLow_MQ, length, msgtype, data));
  3945                           ;	Return value of _ToMainLow_sendmsg is never used
  3946  001642  0101               	movlb	1	; () banked
  3947  001644  0E01               	movlw	high _ToMainLow_MQ
  3948  001646  6E3B               	movwf	send_msg@qptr+1,c
  3949  001648  0101               	movlb	1	; () banked
  3950  00164A  0EA2               	movlw	low _ToMainLow_MQ
  3951  00164C  6E3A               	movwf	send_msg@qptr,c
  3952  00164E  C049  F03C         	movff	ToMainLow_sendmsg@length,send_msg@length
  3953  001652  C046  F03D         	movff	ToMainLow_sendmsg@msgtype,send_msg@msgtype
  3954  001656  C048  F03F         	movff	ToMainLow_sendmsg@data+1,send_msg@data+1
  3955  00165A  C047  F03E         	movff	ToMainLow_sendmsg@data,send_msg@data
  3956  00165E  ECC0  F005         	call	_send_msg	;wreg free
  3957  001662  0012               	return	
  3958  001664                     __end_of_ToMainLow_sendmsg:
  3959                           	opt stack 0
  3960                           pclatu	equ	0xFFB
  3961                           pclath	equ	0xFFA
  3962                           tblptru	equ	0xFF8
  3963                           tblptrh	equ	0xFF7
  3964                           tblptrl	equ	0xFF6
  3965                           tablat	equ	0xFF5
  3966                           prodh	equ	0xFF4
  3967                           prodl	equ	0xFF3
  3968                           intcon	equ	0xFF2
  3969                           postinc0	equ	0xFEE
  3970                           fsr0h	equ	0xFEA
  3971                           fsr0l	equ	0xFE9
  3972                           wreg	equ	0xFE8
  3973                           indf1	equ	0xFE7
  3974                           fsr1h	equ	0xFE2
  3975                           fsr1l	equ	0xFE1
  3976                           bsr	equ	0xFE0
  3977                           indf2	equ	0xFDF
  3978                           postinc2	equ	0xFDE
  3979                           postdec2	equ	0xFDD
  3980                           fsr2h	equ	0xFDA
  3981                           fsr2l	equ	0xFD9
  3982                           status	equ	0xFD8
  3983                           
  3984 ;; *************** function _send_msg *****************
  3985 ;; Defined at:
  3986 ;;		line 24 in file "../src/messages.c"
  3987 ;; Parameters:    Size  Location     Type
  3988 ;;  qptr            2   10[COMRAM] PTR struct __msg_queue
  3989 ;;		 -> FromMainHigh_MQ(54), FromMainLow_MQ(54), ToMainHigh_MQ(54), ToMainLow_MQ(54), 
  3990 ;;  length          1   12[COMRAM] unsigned char 
  3991 ;;  msgtype         1   13[COMRAM] unsigned char 
  3992 ;;  data            2   14[COMRAM] PTR void 
  3993 ;;		 -> timer0_int_handler@val(2), NULL(0), i2c_int_handler@error_buf(3), main@ic(28), 
  3994 ;;		 -> main@uc(5), 
  3995 ;; Auto vars:     Size  Location     Type
  3996 ;;  qmsg            2   20[COMRAM] PTR struct __msg
  3997 ;;		 -> FromMainLow_MQ.queue(52), FromMainHigh_MQ.queue(52), ToMainHigh_MQ.queue(52), ToMainLow_MQ.queue(52), 
  3998 ;;		 -> FromMainHigh_MQ(54), FromMainLow_MQ(54), ToMainHigh_MQ(54), ToMainLow_MQ(54), 
  3999 ;;  tlength         2   17[COMRAM] unsigned int 
  4000 ;;  slot            1   19[COMRAM] unsigned char 
  4001 ;; Return value:  Size  Location     Type
  4002 ;;                  1    wreg      char 
  4003 ;; Registers used:
  4004 ;;		wreg, fsr1l, fsr1h, fsr2l, fsr2h, status,2, status,0, prodl, prodh, cstack
  4005 ;; Tracked objects:
  4006 ;;		On entry : 0/0
  4007 ;;		On exit  : 0/0
  4008 ;;		Unchanged: 0/0
  4009 ;; Data sizes:     COMRAM   BANK0   BANK1   BANK2   BANK3
  4010 ;;      Params:         6       0       0       0       0
  4011 ;;      Locals:         5       0       0       0       0
  4012 ;;      Temps:          1       0       0       0       0
  4013 ;;      Totals:        12       0       0       0       0
  4014 ;;Total ram usage:       12 bytes
  4015 ;; Hardware stack levels used:    1
  4016 ;; Hardware stack levels required when called:    6
  4017 ;; This function calls:
  4018 ;;		i1_memcpy
  4019 ;; This function is called by:
  4020 ;;		_ToMainLow_sendmsg
  4021 ;;		_FromMainLow_sendmsg
  4022 ;;		_FromMainHigh_sendmsg
  4023 ;; This function uses a non-reentrant model
  4024 ;;
  4025                           
  4026                           	psect	text29
  4027  000B80                     __ptext29:
  4028                           	opt stack 0
  4029  000B80                     _send_msg:
  4030                           	opt stack 16
  4031                           
  4032                           ;messages.c: 25: unsigned char slot;
  4033                           ;messages.c: 27: msg *qmsg;
  4034                           ;messages.c: 28: size_t tlength = length;
  4035                           
  4036                           ;incstack = 0
  4037  000B80  C03C  F041         	movff	send_msg@length,send_msg@tlength
  4038  000B84  6A42               	clrf	send_msg@tlength+1,c
  4039                           
  4040                           ;messages.c: 38: slot = qptr->cur_write_ind;
  4041  000B86  EE20 F034          	lfsr	2,52
  4042  000B8A  503A               	movf	send_msg@qptr,w,c
  4043  000B8C  26D9               	addwf	fsr2l,f,c
  4044  000B8E  503B               	movf	send_msg@qptr+1,w,c
  4045  000B90  22DA               	addwfc	fsr2h,f,c
  4046  000B92  50DF               	movf	indf2,w,c
  4047  000B94  6E43               	movwf	send_msg@slot,c
  4048                           
  4049                           ;messages.c: 39: qmsg = &(qptr->queue[slot]);
  4050  000B96  5043               	movf	send_msg@slot,w,c
  4051  000B98  0D0D               	mullw	13
  4052  000B9A  50F3               	movf	prodl,w,c
  4053  000B9C  243A               	addwf	send_msg@qptr,w,c
  4054  000B9E  6E44               	movwf	send_msg@qmsg,c
  4055  000BA0  50F4               	movf	prodh,w,c
  4056  000BA2  203B               	addwfc	send_msg@qptr+1,w,c
  4057  000BA4  6E45               	movwf	send_msg@qmsg+1,c
  4058                           
  4059                           ;messages.c: 41: if (qmsg->full != 0) {
  4060  000BA6  C044  FFD9         	movff	send_msg@qmsg,fsr2l
  4061  000BAA  C045  FFDA         	movff	send_msg@qmsg+1,fsr2h
  4062  000BAE  50DF               	movf	indf2,w,c
  4063  000BB0  B4D8               	btfsc	status,2,c
  4064  000BB2  D002               	goto	i1l3585
  4065                           
  4066                           ;messages.c: 42: return (-1);
  4067  000BB4  0EFF               	movlw	255
  4068  000BB6  0012               	return	
  4069  000BB8                     i1l3585:
  4070                           
  4071                           ;messages.c: 43: }
  4072                           ;messages.c: 46: qmsg->length = length;
  4073  000BB8  EE20 F001          	lfsr	2,1
  4074  000BBC  5044               	movf	send_msg@qmsg,w,c
  4075  000BBE  26D9               	addwf	fsr2l,f,c
  4076  000BC0  5045               	movf	send_msg@qmsg+1,w,c
  4077  000BC2  22DA               	addwfc	fsr2h,f,c
  4078  000BC4  C03C  FFDF         	movff	send_msg@length,indf2
  4079                           
  4080                           ;messages.c: 47: qmsg->msgtype = msgtype;
  4081  000BC8  EE20 F002          	lfsr	2,2
  4082  000BCC  5044               	movf	send_msg@qmsg,w,c
  4083  000BCE  26D9               	addwf	fsr2l,f,c
  4084  000BD0  5045               	movf	send_msg@qmsg+1,w,c
  4085  000BD2  22DA               	addwfc	fsr2h,f,c
  4086  000BD4  C03D  FFDF         	movff	send_msg@msgtype,indf2
  4087                           
  4088                           ;messages.c: 55: memcpy(qmsg->data, data, tlength);
  4089  000BD8  0E03               	movlw	3
  4090  000BDA  2444               	addwf	send_msg@qmsg,w,c
  4091  000BDC  6E30               	movwf	i1memcpy@d1,c
  4092  000BDE  0E00               	movlw	0
  4093  000BE0  2045               	addwfc	send_msg@qmsg+1,w,c
  4094  000BE2  6E31               	movwf	i1memcpy@d1+1,c
  4095  000BE4  C03F  F033         	movff	send_msg@data+1,i1memcpy@s1+1
  4096  000BE8  C03E  F032         	movff	send_msg@data,i1memcpy@s1
  4097  000BEC  C041  F034         	movff	send_msg@tlength,i1memcpy@n
  4098  000BF0  C042  F035         	movff	send_msg@tlength+1,i1memcpy@n+1
  4099  000BF4  EC3A  F00A         	call	i1_memcpy	;wreg free
  4100                           
  4101                           ;messages.c: 56: qptr->cur_write_ind = (qptr->cur_write_ind + 1) % 4;
  4102  000BF8  EE20 F034          	lfsr	2,52
  4103  000BFC  503A               	movf	send_msg@qptr,w,c
  4104  000BFE  26D9               	addwf	fsr2l,f,c
  4105  000C00  503B               	movf	send_msg@qptr+1,w,c
  4106  000C02  22DA               	addwfc	fsr2h,f,c
  4107  000C04  EE10 F034          	lfsr	1,52
  4108  000C08  503A               	movf	send_msg@qptr,w,c
  4109  000C0A  26E1               	addwf	fsr1l,f,c
  4110  000C0C  503B               	movf	send_msg@qptr+1,w,c
  4111  000C0E  22E2               	addwfc	fsr1h,f,c
  4112  000C10  50E7               	movf	indf1,w,c
  4113  000C12  6E40               	movwf	??_send_msg& (0+255),c
  4114  000C14  2840               	incf	??_send_msg,w,c
  4115  000C16  0B03               	andlw	3
  4116  000C18  6EDF               	movwf	indf2,c
  4117                           
  4118                           ;messages.c: 59: qmsg->full = 1;
  4119  000C1A  C044  FFD9         	movff	send_msg@qmsg,fsr2l
  4120  000C1E  C045  FFDA         	movff	send_msg@qmsg+1,fsr2h
  4121  000C22  0E01               	movlw	1
  4122  000C24  6EDF               	movwf	indf2,c
  4123                           
  4124                           ;messages.c: 60: return (1);
  4125  000C26  0E01               	movlw	1
  4126  000C28  0012               	return	
  4127  000C2A                     __end_of_send_msg:
  4128                           	opt stack 0
  4129                           pclatu	equ	0xFFB
  4130                           pclath	equ	0xFFA
  4131                           tblptru	equ	0xFF8
  4132                           tblptrh	equ	0xFF7
  4133                           tblptrl	equ	0xFF6
  4134                           tablat	equ	0xFF5
  4135                           prodh	equ	0xFF4
  4136                           prodl	equ	0xFF3
  4137                           intcon	equ	0xFF2
  4138                           postinc0	equ	0xFEE
  4139                           fsr0h	equ	0xFEA
  4140                           fsr0l	equ	0xFE9
  4141                           wreg	equ	0xFE8
  4142                           indf1	equ	0xFE7
  4143                           fsr1h	equ	0xFE2
  4144                           fsr1l	equ	0xFE1
  4145                           bsr	equ	0xFE0
  4146                           indf2	equ	0xFDF
  4147                           postinc2	equ	0xFDE
  4148                           postdec2	equ	0xFDD
  4149                           fsr2h	equ	0xFDA
  4150                           fsr2l	equ	0xFD9
  4151                           status	equ	0xFD8
  4152                           
  4153 ;; *************** function i1_memcpy *****************
  4154 ;; Defined at:
  4155 ;;		line 11 in file "C:\Program Files\Microchip\xc8\v1.30\sources\common\memcpy.c"
  4156 ;; Parameters:    Size  Location     Type
  4157 ;;  d1              2    0[COMRAM] PTR void 
  4158 ;;		 -> FromMainLow_MQ.queue(52), FromMainHigh_MQ.queue(52), ToMainHigh_MQ.queue(52), ToMainLow_MQ.queue(52), 
  4159 ;;		 -> timer0_int_handler@val(2), FromMainHigh_MQ(54), FromMainLow_MQ(54), ToMainHigh_MQ(54), 
  4160 ;;		 -> ToMainLow_MQ(54), main@msgbuffer(11), 
  4161 ;;  s1              2    2[COMRAM] PTR const void 
  4162 ;;		 -> ToMainLow_MQ.data(10), ToMainHigh_MQ.data(10), FromMainLow_MQ.data(10), FromMainHigh_MQ.data(10), 
  4163 ;;		 -> ToMainLow_MQ.queue.data(10), ToMainHigh_MQ.queue.data(10), FromMainHigh_MQ.queue.data(10), FromMainLow_MQ.queue.
      +data(10), 
  4164 ;;		 -> timer0_int_handler@val(2), NULL(0), i2c_int_handler@error_buf(3), FromMainHigh_MQ(54), 
  4165 ;;		 -> FromMainLow_MQ(54), ToMainHigh_MQ(54), ToMainLow_MQ(54), main@ic(28), 
  4166 ;;		 -> main@uc(5), 
  4167 ;;  n               2    4[COMRAM] unsigned int 
  4168 ;; Auto vars:     Size  Location     Type
  4169 ;;  memcpy          2    8[COMRAM] PTR const unsigned char 
  4170 ;;		 -> ToMainLow_MQ.data(10), ToMainHigh_MQ.data(10), FromMainLow_MQ.data(10), FromMainHigh_MQ.data(10), 
  4171 ;;		 -> ToMainLow_MQ.queue.data(10), ToMainHigh_MQ.queue.data(10), FromMainHigh_MQ.queue.data(10), FromMainLow_MQ.queue.
      +data(10), 
  4172 ;;		 -> timer0_int_handler@val(2), NULL(0), i2c_int_handler@error_buf(3), FromMainHigh_MQ(54), 
  4173 ;;		 -> FromMainLow_MQ(54), ToMainHigh_MQ(54), ToMainLow_MQ(54), main@ic(28), 
  4174 ;;		 -> main@uc(5), 
  4175 ;;  memcpy          2    6[COMRAM] PTR unsigned char 
  4176 ;;		 -> FromMainLow_MQ.queue(52), FromMainHigh_MQ.queue(52), ToMainHigh_MQ.queue(52), ToMainLow_MQ.queue(52), 
  4177 ;;		 -> timer0_int_handler@val(2), FromMainHigh_MQ(54), FromMainLow_MQ(54), ToMainHigh_MQ(54), 
  4178 ;;		 -> ToMainLow_MQ(54), main@msgbuffer(11), 
  4179 ;; Return value:  Size  Location     Type
  4180 ;;                  2    0[COMRAM] PTR void 
  4181 ;; Registers used:
  4182 ;;		wreg, fsr1l, fsr1h, fsr2l, fsr2h, status,2, status,0
  4183 ;; Tracked objects:
  4184 ;;		On entry : 0/0
  4185 ;;		On exit  : 0/0
  4186 ;;		Unchanged: 0/0
  4187 ;; Data sizes:     COMRAM   BANK0   BANK1   BANK2   BANK3
  4188 ;;      Params:         6       0       0       0       0
  4189 ;;      Locals:         4       0       0       0       0
  4190 ;;      Temps:          0       0       0       0       0
  4191 ;;      Totals:        10       0       0       0       0
  4192 ;;Total ram usage:       10 bytes
  4193 ;; Hardware stack levels used:    1
  4194 ;; Hardware stack levels required when called:    5
  4195 ;; This function calls:
  4196 ;;		Nothing
  4197 ;; This function is called by:
  4198 ;;		_send_msg
  4199 ;; This function uses a non-reentrant model
  4200 ;;
  4201                           
  4202                           	psect	text30
  4203  001474                     __ptext30:
  4204                           	opt stack 0
  4205  001474                     i1_memcpy:
  4206                           	opt stack 16
  4207                           
  4208                           ;incstack = 0
  4209  001474  C033  F039         	movff	i1memcpy@s1+1,i1memcpy@s+1
  4210  001478  C032  F038         	movff	i1memcpy@s1,i1memcpy@s
  4211  00147C  C031  F037         	movff	i1memcpy@d1+1,i1memcpy@d+1
  4212  001480  C030  F036         	movff	i1memcpy@d1,i1memcpy@d
  4213  001484  D00E               	goto	i1l3561
  4214  001486                     i1l3555:
  4215  001486  C038  FFD9         	movff	i1memcpy@s,fsr2l
  4216  00148A  C039  FFDA         	movff	i1memcpy@s+1,fsr2h
  4217  00148E  C036  FFE1         	movff	i1memcpy@d,fsr1l
  4218  001492  C037  FFE2         	movff	i1memcpy@d+1,fsr1h
  4219  001496  CFDF FFE7          	movff	indf2,indf1
  4220  00149A  4A38               	infsnz	i1memcpy@s,f,c
  4221  00149C  2A39               	incf	i1memcpy@s+1,f,c
  4222  00149E  4A36               	infsnz	i1memcpy@d,f,c
  4223  0014A0  2A37               	incf	i1memcpy@d+1,f,c
  4224  0014A2                     i1l3561:
  4225  0014A2  0634               	decf	i1memcpy@n,f,c
  4226  0014A4  A0D8               	btfss	status,0,c
  4227  0014A6  0635               	decf	i1memcpy@n+1,f,c
  4228  0014A8  2834               	incf	i1memcpy@n& (0+255),w,c
  4229  0014AA  B4D8               	btfsc	status,2,c
  4230  0014AC  2835               	incf	(i1memcpy@n+1)& (0+255),w,c
  4231  0014AE  B4D8               	btfsc	status,2,c
  4232                           
  4233                           ;	Return value of i1_memcpy is never used
  4234  0014B0  0012               	return	
  4235  0014B2  D7E9               	goto	i1l3555
  4236  0014B4                     __end_ofi1_memcpy:
  4237                           	opt stack 0
  4238                           pclatu	equ	0xFFB
  4239                           pclath	equ	0xFFA
  4240                           tblptru	equ	0xFF8
  4241                           tblptrh	equ	0xFF7
  4242                           tblptrl	equ	0xFF6
  4243                           tablat	equ	0xFF5
  4244                           prodh	equ	0xFF4
  4245                           prodl	equ	0xFF3
  4246                           intcon	equ	0xFF2
  4247                           postinc0	equ	0xFEE
  4248                           fsr0h	equ	0xFEA
  4249                           fsr0l	equ	0xFE9
  4250                           wreg	equ	0xFE8
  4251                           indf1	equ	0xFE7
  4252                           fsr1h	equ	0xFE2
  4253                           fsr1l	equ	0xFE1
  4254                           bsr	equ	0xFE0
  4255                           indf2	equ	0xFDF
  4256                           postinc2	equ	0xFDE
  4257                           postdec2	equ	0xFDD
  4258                           fsr2h	equ	0xFDA
  4259                           fsr2l	equ	0xFD9
  4260                           status	equ	0xFD8
  4261                           
  4262 ;; *************** function _ReadTimer1 *****************
  4263 ;; Defined at:
  4264 ;;		line 15 in file "C:\Program Files\Microchip\xc8\v1.30\sources\pic18\plib\Timers\t1read.c"
  4265 ;; Parameters:    Size  Location     Type
  4266 ;;		None
  4267 ;; Auto vars:     Size  Location     Type
  4268 ;;  timer           2    2[COMRAM] struct Timers
  4269 ;; Return value:  Size  Location     Type
  4270 ;;                  2    0[COMRAM] unsigned int 
  4271 ;; Registers used:
  4272 ;;		None
  4273 ;; Tracked objects:
  4274 ;;		On entry : 0/0
  4275 ;;		On exit  : 0/0
  4276 ;;		Unchanged: 0/0
  4277 ;; Data sizes:     COMRAM   BANK0   BANK1   BANK2   BANK3
  4278 ;;      Params:         2       0       0       0       0
  4279 ;;      Locals:         2       0       0       0       0
  4280 ;;      Temps:          0       0       0       0       0
  4281 ;;      Totals:         4       0       0       0       0
  4282 ;;Total ram usage:        4 bytes
  4283 ;; Hardware stack levels used:    1
  4284 ;; Hardware stack levels required when called:    5
  4285 ;; This function calls:
  4286 ;;		Nothing
  4287 ;; This function is called by:
  4288 ;;		_timer1_int_handler
  4289 ;; This function uses a non-reentrant model
  4290 ;;
  4291                           
  4292                           	psect	text31
  4293  00170C                     __ptext31:
  4294                           	opt stack 0
  4295  00170C                     _ReadTimer1:
  4296                           	opt stack 18
  4297                           
  4298                           ;incstack = 0
  4299  00170C  CFCE F032          	movff	4046,ReadTimer1@timer	;volatile
  4300  001710  CFCF F033          	movff	4047,ReadTimer1@timer+1	;volatile
  4301  001714  C032  F030         	movff	ReadTimer1@timer,?_ReadTimer1
  4302  001718  C033  F031         	movff	ReadTimer1@timer+1,?_ReadTimer1+1
  4303  00171C  0012               	return	
  4304  00171E                     __end_of_ReadTimer1:
  4305                           	opt stack 0
  4306                           pclatu	equ	0xFFB
  4307                           pclath	equ	0xFFA
  4308                           tblptru	equ	0xFF8
  4309                           tblptrh	equ	0xFF7
  4310                           tblptrl	equ	0xFF6
  4311                           tablat	equ	0xFF5
  4312                           prodh	equ	0xFF4
  4313                           prodl	equ	0xFF3
  4314                           intcon	equ	0xFF2
  4315                           postinc0	equ	0xFEE
  4316                           fsr0h	equ	0xFEA
  4317                           fsr0l	equ	0xFE9
  4318                           wreg	equ	0xFE8
  4319                           indf1	equ	0xFE7
  4320                           fsr1h	equ	0xFE2
  4321                           fsr1l	equ	0xFE1
  4322                           bsr	equ	0xFE0
  4323                           indf2	equ	0xFDF
  4324                           postinc2	equ	0xFDE
  4325                           postdec2	equ	0xFDD
  4326                           fsr2h	equ	0xFDA
  4327                           fsr2l	equ	0xFD9
  4328                           status	equ	0xFD8
  4329                           
  4330 ;; *************** function _InterruptHandlerHigh *****************
  4331 ;; Defined at:
  4332 ;;		line 87 in file "../src/interrupts.c"
  4333 ;; Parameters:    Size  Location     Type
  4334 ;;		None
  4335 ;; Auto vars:     Size  Location     Type
  4336 ;;		None
  4337 ;; Return value:  Size  Location     Type
  4338 ;;		None               void
  4339 ;; Registers used:
  4340 ;;		wreg, fsr1l, fsr1h, fsr2l, fsr2h, status,2, status,0, prodl, prodh, cstack
  4341 ;; Tracked objects:
  4342 ;;		On entry : 0/0
  4343 ;;		On exit  : 0/0
  4344 ;;		Unchanged: 0/0
  4345 ;; Data sizes:     COMRAM   BANK0   BANK1   BANK2   BANK3
  4346 ;;      Params:         0       0       0       0       0
  4347 ;;      Locals:         0       0       0       0       0
  4348 ;;      Temps:          0      14       0       0       0
  4349 ;;      Totals:         0      14       0       0       0
  4350 ;;Total ram usage:       14 bytes
  4351 ;; Hardware stack levels used:    1
  4352 ;; Hardware stack levels required when called:    4
  4353 ;; This function calls:
  4354 ;;		_SleepIfOkay
  4355 ;;		_i2c_int_handler
  4356 ;;		_timer0_int_handler
  4357 ;; This function is called by:
  4358 ;;		Interrupt level 2
  4359 ;; This function uses a non-reentrant model
  4360 ;;
  4361                           
  4362                           	psect	intcode
  4363  000008                     __pintcode:
  4364                           	opt stack 0
  4365  000008                     _InterruptHandlerHigh:
  4366                           	opt stack 16
  4367                           
  4368                           ;incstack = 0
  4369  000008  CFFA F0A5          	movff	pclath,??_InterruptHandlerHigh
  4370  00000C  CFFB F0A6          	movff	pclatu,??_InterruptHandlerHigh+1
  4371  000010  EF85  F007         	goto	int_func
  4372                           pclatu	equ	0xFFB
  4373                           pclath	equ	0xFFA
  4374                           tblptru	equ	0xFF8
  4375                           tblptrh	equ	0xFF7
  4376                           tblptrl	equ	0xFF6
  4377                           tablat	equ	0xFF5
  4378                           prodh	equ	0xFF4
  4379                           prodl	equ	0xFF3
  4380                           intcon	equ	0xFF2
  4381                           postinc0	equ	0xFEE
  4382                           fsr0h	equ	0xFEA
  4383                           fsr0l	equ	0xFE9
  4384                           wreg	equ	0xFE8
  4385                           indf1	equ	0xFE7
  4386                           fsr1h	equ	0xFE2
  4387                           fsr1l	equ	0xFE1
  4388                           bsr	equ	0xFE0
  4389                           indf2	equ	0xFDF
  4390                           postinc2	equ	0xFDE
  4391                           postdec2	equ	0xFDD
  4392                           fsr2h	equ	0xFDA
  4393                           fsr2l	equ	0xFD9
  4394                           status	equ	0xFD8
  4395                           
  4396                           	psect	intcode_body
  4397  000F0A                     __pintcode_body:
  4398                           	opt stack 16
  4399  000F0A                     int_func:
  4400                           	opt stack 16
  4401  000F0A  CFE9 F0A7          	movff	fsr0l,??_InterruptHandlerHigh+2
  4402  000F0E  CFEA F0A8          	movff	fsr0h,??_InterruptHandlerHigh+3
  4403  000F12  CFE1 F0A9          	movff	fsr1l,??_InterruptHandlerHigh+4
  4404  000F16  CFE2 F0AA          	movff	fsr1h,??_InterruptHandlerHigh+5
  4405  000F1A  CFD9 F0AB          	movff	fsr2l,??_InterruptHandlerHigh+6
  4406  000F1E  CFDA F0AC          	movff	fsr2h,??_InterruptHandlerHigh+7
  4407  000F22  CFF3 F0AD          	movff	prodl,??_InterruptHandlerHigh+8
  4408  000F26  CFF4 F0AE          	movff	prodh,??_InterruptHandlerHigh+9
  4409  000F2A  CFF6 F0AF          	movff	tblptrl,??_InterruptHandlerHigh+10
  4410  000F2E  CFF7 F0B0          	movff	tblptrh,??_InterruptHandlerHigh+11
  4411  000F32  CFF8 F0B1          	movff	tblptru,??_InterruptHandlerHigh+12
  4412  000F36  CFF5 F0B2          	movff	tablat,??_InterruptHandlerHigh+13
  4413                           
  4414                           ;interrupts.c: 100: if (PIR1bits.SSPIF) {
  4415  000F3A  A69E               	btfss	3998,3,c	;volatile
  4416  000F3C  D003               	goto	i2l2921
  4417                           
  4418                           ;interrupts.c: 102: PIR1bits.SSPIF = 0;
  4419  000F3E  969E               	bcf	3998,3,c	;volatile
  4420                           
  4421                           ;interrupts.c: 104: i2c_int_handler();
  4422  000F40  EC5D  F000         	call	_i2c_int_handler	;wreg free
  4423  000F44                     i2l2921:
  4424                           
  4425                           ;interrupts.c: 105: }
  4426                           ;interrupts.c: 108: if (INTCONbits.TMR0IF) {
  4427  000F44  A4F2               	btfss	intcon,2,c	;volatile
  4428  000F46  D003               	goto	i2l2927
  4429                           
  4430                           ;interrupts.c: 109: INTCONbits.TMR0IF = 0;
  4431  000F48  94F2               	bcf	intcon,2,c	;volatile
  4432                           
  4433                           ;interrupts.c: 111: timer0_int_handler();
  4434  000F4A  ECFA  F006         	call	_timer0_int_handler	;wreg free
  4435  000F4E                     i2l2927:
  4436                           
  4437                           ;interrupts.c: 112: }
  4438                           ;interrupts.c: 126: SleepIfOkay();
  4439  000F4E  ECB5  F008         	call	_SleepIfOkay	;wreg free
  4440  000F52  C0B2  FFF5         	movff	??_InterruptHandlerHigh+13,tablat
  4441  000F56  C0B1  FFF8         	movff	??_InterruptHandlerHigh+12,tblptru
  4442  000F5A  C0B0  FFF7         	movff	??_InterruptHandlerHigh+11,tblptrh
  4443  000F5E  C0AF  FFF6         	movff	??_InterruptHandlerHigh+10,tblptrl
  4444  000F62  C0AE  FFF4         	movff	??_InterruptHandlerHigh+9,prodh
  4445  000F66  C0AD  FFF3         	movff	??_InterruptHandlerHigh+8,prodl
  4446  000F6A  C0AC  FFDA         	movff	??_InterruptHandlerHigh+7,fsr2h
  4447  000F6E  C0AB  FFD9         	movff	??_InterruptHandlerHigh+6,fsr2l
  4448  000F72  C0AA  FFE2         	movff	??_InterruptHandlerHigh+5,fsr1h
  4449  000F76  C0A9  FFE1         	movff	??_InterruptHandlerHigh+4,fsr1l
  4450  000F7A  C0A8  FFEA         	movff	??_InterruptHandlerHigh+3,fsr0h
  4451  000F7E  C0A7  FFE9         	movff	??_InterruptHandlerHigh+2,fsr0l
  4452  000F82  C0A6  FFFB         	movff	??_InterruptHandlerHigh+1,pclatu
  4453  000F86  C0A5  FFFA         	movff	??_InterruptHandlerHigh,pclath
  4454  000F8A  0011               	retfie		f
  4455  000F8C                     __end_of_InterruptHandlerHigh:
  4456                           	opt stack 0
  4457                           pclatu	equ	0xFFB
  4458                           pclath	equ	0xFFA
  4459                           tblptru	equ	0xFF8
  4460                           tblptrh	equ	0xFF7
  4461                           tblptrl	equ	0xFF6
  4462                           tablat	equ	0xFF5
  4463                           prodh	equ	0xFF4
  4464                           prodl	equ	0xFF3
  4465                           intcon	equ	0xFF2
  4466                           postinc0	equ	0xFEE
  4467                           fsr0h	equ	0xFEA
  4468                           fsr0l	equ	0xFE9
  4469                           wreg	equ	0xFE8
  4470                           indf1	equ	0xFE7
  4471                           fsr1h	equ	0xFE2
  4472                           fsr1l	equ	0xFE1
  4473                           bsr	equ	0xFE0
  4474                           indf2	equ	0xFDF
  4475                           postinc2	equ	0xFDE
  4476                           postdec2	equ	0xFDD
  4477                           fsr2h	equ	0xFDA
  4478                           fsr2l	equ	0xFD9
  4479                           status	equ	0xFD8
  4480                           
  4481 ;; *************** function _timer0_int_handler *****************
  4482 ;; Defined at:
  4483 ;;		line 18 in file "../src/user_interrupts.c"
  4484 ;; Parameters:    Size  Location     Type
  4485 ;;		None
  4486 ;; Auto vars:     Size  Location     Type
  4487 ;;  val             2   34[BANK0 ] unsigned int 
  4488 ;;  msgtype         2   32[BANK0 ] int 
  4489 ;;  length          2   30[BANK0 ] int 
  4490 ;; Return value:  Size  Location     Type
  4491 ;;		None               void
  4492 ;; Registers used:
  4493 ;;		wreg, fsr1l, fsr1h, fsr2l, fsr2h, status,2, status,0, prodl, prodh, cstack
  4494 ;; Tracked objects:
  4495 ;;		On entry : 0/0
  4496 ;;		On exit  : 0/0
  4497 ;;		Unchanged: 0/0
  4498 ;; Data sizes:     COMRAM   BANK0   BANK1   BANK2   BANK3
  4499 ;;      Params:         0       0       0       0       0
  4500 ;;      Locals:         0       6       0       0       0
  4501 ;;      Temps:          0       1       0       0       0
  4502 ;;      Totals:         0       7       0       0       0
  4503 ;;Total ram usage:        7 bytes
  4504 ;; Hardware stack levels used:    1
  4505 ;; Hardware stack levels required when called:    3
  4506 ;; This function calls:
  4507 ;;		_FromMainHigh_recvmsg
  4508 ;;		_ToMainHigh_sendmsg
  4509 ;;		_WriteTimer0
  4510 ;;		_start_adc
  4511 ;; This function is called by:
  4512 ;;		_InterruptHandlerHigh
  4513 ;; This function uses a non-reentrant model
  4514 ;;
  4515                           
  4516                           	psect	text33
  4517  000DF4                     __ptext33:
  4518                           	opt stack 0
  4519  000DF4                     _timer0_int_handler:
  4520                           	opt stack 16
  4521                           
  4522                           ;user_interrupts.c: 19: unsigned int val;
  4523                           ;user_interrupts.c: 20: int length, msgtype;
  4524                           ;user_interrupts.c: 28: { LATBbits.LATB1 = 1; };
  4525                           
  4526                           ;incstack = 0
  4527  000DF4  828A               	bsf	3978,1,c	;volatile
  4528                           
  4529                           ;user_interrupts.c: 29: { LATBbits.LATB1 = 0; };
  4530  000DF6  928A               	bcf	3978,1,c	;volatile
  4531                           
  4532                           ;user_interrupts.c: 32: start_adc();
  4533  000DF8  ECA1  F00B         	call	_start_adc	;wreg free
  4534                           
  4535                           ;user_interrupts.c: 34: WriteTimer0(0);
  4536  000DFC  0E00               	movlw	0
  4537  000DFE  0100               	movlb	0	; () banked
  4538  000E00  0100               	movlb	0	; () banked
  4539  000E02  6F81               	movwf	(WriteTimer0@timer0+1)& (0+255),b
  4540  000E04  0E00               	movlw	0
  4541  000E06  0100               	movlb	0	; () banked
  4542  000E08  6F80               	movwf	WriteTimer0@timer0& (0+255),b
  4543  000E0A  EC8F  F00B         	call	_WriteTimer0	;wreg free
  4544                           
  4545                           ;user_interrupts.c: 38: length = FromMainHigh_recvmsg(sizeof(val), (unsigned char *)&msg
      +                          type, (void *) &val);
  4546  000E0E  0100               	movlb	0	; () banked
  4547  000E10  0E00               	movlw	high timer0_int_handler@msgtype
  4548  000E12  0100               	movlb	0	; () banked
  4549  000E14  0100               	movlb	0	; () banked
  4550  000E16  6F99               	movwf	(FromMainHigh_recvmsg@msgtype+1)& (0+255),b
  4551  000E18  0100               	movlb	0	; () banked
  4552  000E1A  0EA0               	movlw	low timer0_int_handler@msgtype
  4553  000E1C  0100               	movlb	0	; () banked
  4554  000E1E  0100               	movlb	0	; () banked
  4555  000E20  6F98               	movwf	FromMainHigh_recvmsg@msgtype& (0+255),b
  4556  000E22  0100               	movlb	0	; () banked
  4557  000E24  0E00               	movlw	high timer0_int_handler@val
  4558  000E26  0100               	movlb	0	; () banked
  4559  000E28  0100               	movlb	0	; () banked
  4560  000E2A  6F9B               	movwf	(FromMainHigh_recvmsg@data+1)& (0+255),b
  4561  000E2C  0100               	movlb	0	; () banked
  4562  000E2E  0EA2               	movlw	low timer0_int_handler@val
  4563  000E30  0100               	movlb	0	; () banked
  4564  000E32  0100               	movlb	0	; () banked
  4565  000E34  6F9A               	movwf	FromMainHigh_recvmsg@data& (0+255),b
  4566  000E36  0E02               	movlw	2
  4567  000E38  EC19  F00A         	call	_FromMainHigh_recvmsg
  4568  000E3C  0100               	movlb	0	; () banked
  4569  000E3E  0100               	movlb	0	; () banked
  4570  000E40  6F9E               	movwf	timer0_int_handler@length& (0+255),b
  4571  000E42  0100               	movlb	0	; () banked
  4572  000E44  6B9F               	clrf	(timer0_int_handler@length+1)& (0+255),b
  4573  000E46  0100               	movlb	0	; () banked
  4574  000E48  BF9E               	btfsc	timer0_int_handler@length& (0+255),7,b
  4575  000E4A  079F               	decf	(timer0_int_handler@length+1)& (0+255),f,b
  4576                           
  4577                           ; BSR set to: 0
  4578                           ;user_interrupts.c: 39: if (length == sizeof (val)) {
  4579  000E4C  0100               	movlb	0	; () banked
  4580  000E4E  0100               	movlb	0	; () banked
  4581  000E50  519E               	movf	timer0_int_handler@length& (0+255),w,b
  4582  000E52  0A02               	xorlw	2
  4583  000E54  119F               	iorwf	(timer0_int_handler@length+1)& (0+255),w,b
  4584  000E56  A4D8               	btfss	status,2,c
  4585  000E58  0012               	return	
  4586                           
  4587                           ; BSR set to: 0
  4588                           ;user_interrupts.c: 40: ToMainHigh_sendmsg(sizeof (val), 10, (void *) &val);
  4589  000E5A  0100               	movlb	0	; () banked
  4590  000E5C  6F9D               	movwf	??_timer0_int_handler& (0+255),b
  4591  000E5E  0E0A               	movlw	10
  4592  000E60  0100               	movlb	0	; () banked
  4593  000E62  0100               	movlb	0	; () banked
  4594  000E64  6F96               	movwf	ToMainHigh_sendmsg@msgtype& (0+255),b
  4595  000E66  0100               	movlb	0	; () banked
  4596  000E68  519D               	movf	??_timer0_int_handler& (0+255),w,b
  4597  000E6A  0100               	movlb	0	; () banked
  4598  000E6C  0E00               	movlw	high timer0_int_handler@val
  4599  000E6E  0100               	movlb	0	; () banked
  4600  000E70  0100               	movlb	0	; () banked
  4601  000E72  6F98               	movwf	(ToMainHigh_sendmsg@data+1)& (0+255),b
  4602  000E74  0100               	movlb	0	; () banked
  4603  000E76  0EA2               	movlw	low timer0_int_handler@val
  4604  000E78  0100               	movlb	0	; () banked
  4605  000E7A  0100               	movlb	0	; () banked
  4606  000E7C  6F97               	movwf	ToMainHigh_sendmsg@data& (0+255),b
  4607  000E7E  0E02               	movlw	2
  4608  000E80  EC91  F00A         	call	_ToMainHigh_sendmsg
  4609  000E84  0012               	return	
  4610  000E86                     __end_of_timer0_int_handler:
  4611                           	opt stack 0
  4612                           pclatu	equ	0xFFB
  4613                           pclath	equ	0xFFA
  4614                           tblptru	equ	0xFF8
  4615                           tblptrh	equ	0xFF7
  4616                           tblptrl	equ	0xFF6
  4617                           tablat	equ	0xFF5
  4618                           prodh	equ	0xFF4
  4619                           prodl	equ	0xFF3
  4620                           intcon	equ	0xFF2
  4621                           postinc0	equ	0xFEE
  4622                           fsr0h	equ	0xFEA
  4623                           fsr0l	equ	0xFE9
  4624                           wreg	equ	0xFE8
  4625                           indf1	equ	0xFE7
  4626                           fsr1h	equ	0xFE2
  4627                           fsr1l	equ	0xFE1
  4628                           bsr	equ	0xFE0
  4629                           indf2	equ	0xFDF
  4630                           postinc2	equ	0xFDE
  4631                           postdec2	equ	0xFDD
  4632                           fsr2h	equ	0xFDA
  4633                           fsr2l	equ	0xFD9
  4634                           status	equ	0xFD8
  4635                           
  4636 ;; *************** function _start_adc *****************
  4637 ;; Defined at:
  4638 ;;		line 65 in file "../src/adc_int_handler.c"
  4639 ;; Parameters:    Size  Location     Type
  4640 ;;		None
  4641 ;; Auto vars:     Size  Location     Type
  4642 ;;		None
  4643 ;; Return value:  Size  Location     Type
  4644 ;;		None               void
  4645 ;; Registers used:
  4646 ;;		None
  4647 ;; Tracked objects:
  4648 ;;		On entry : 0/0
  4649 ;;		On exit  : 0/0
  4650 ;;		Unchanged: 0/0
  4651 ;; Data sizes:     COMRAM   BANK0   BANK1   BANK2   BANK3
  4652 ;;      Params:         0       0       0       0       0
  4653 ;;      Locals:         0       0       0       0       0
  4654 ;;      Temps:          0       0       0       0       0
  4655 ;;      Totals:         0       0       0       0       0
  4656 ;;Total ram usage:        0 bytes
  4657 ;; Hardware stack levels used:    1
  4658 ;; This function calls:
  4659 ;;		Nothing
  4660 ;; This function is called by:
  4661 ;;		_timer0_int_handler
  4662 ;; This function uses a non-reentrant model
  4663 ;;
  4664                           
  4665                           	psect	text34
  4666  001742                     __ptext34:
  4667                           	opt stack 0
  4668  001742                     _start_adc:
  4669                           	opt stack 18
  4670                           
  4671                           ;adc_int_handler.c: 67: (PIR1bits.ADIF=0,INTCONbits.PEIE=1,PIE1bits.ADIE=1);
  4672                           
  4673                           ;incstack = 0
  4674  001742  9C9E               	bcf	3998,6,c	;volatile
  4675  001744  8CF2               	bsf	intcon,6,c	;volatile
  4676  001746  8C9D               	bsf	3997,6,c	;volatile
  4677                           
  4678                           ;adc_int_handler.c: 69: IPR1bits.ADIP = 1;
  4679  001748  8C9F               	bsf	3999,6,c	;volatile
  4680                           
  4681                           ;adc_int_handler.c: 70: ADCON0bits.GO = 0x1;
  4682  00174A  82C2               	bsf	4034,1,c	;volatile
  4683  00174C  0012               	return	
  4684  00174E                     __end_of_start_adc:
  4685                           	opt stack 0
  4686                           pclatu	equ	0xFFB
  4687                           pclath	equ	0xFFA
  4688                           tblptru	equ	0xFF8
  4689                           tblptrh	equ	0xFF7
  4690                           tblptrl	equ	0xFF6
  4691                           tablat	equ	0xFF5
  4692                           prodh	equ	0xFF4
  4693                           prodl	equ	0xFF3
  4694                           intcon	equ	0xFF2
  4695                           postinc0	equ	0xFEE
  4696                           fsr0h	equ	0xFEA
  4697                           fsr0l	equ	0xFE9
  4698                           wreg	equ	0xFE8
  4699                           indf1	equ	0xFE7
  4700                           fsr1h	equ	0xFE2
  4701                           fsr1l	equ	0xFE1
  4702                           bsr	equ	0xFE0
  4703                           indf2	equ	0xFDF
  4704                           postinc2	equ	0xFDE
  4705                           postdec2	equ	0xFDD
  4706                           fsr2h	equ	0xFDA
  4707                           fsr2l	equ	0xFD9
  4708                           status	equ	0xFD8
  4709                           
  4710 ;; *************** function _WriteTimer0 *****************
  4711 ;; Defined at:
  4712 ;;		line 16 in file "C:\Program Files\Microchip\xc8\v1.30\sources\pic18\plib\Timers\t0write.c"
  4713 ;; Parameters:    Size  Location     Type
  4714 ;;  timer0          2    0[BANK0 ] unsigned int 
  4715 ;; Auto vars:     Size  Location     Type
  4716 ;;  timer           2    2[BANK0 ] struct Timers
  4717 ;; Return value:  Size  Location     Type
  4718 ;;		None               void
  4719 ;; Registers used:
  4720 ;;		None
  4721 ;; Tracked objects:
  4722 ;;		On entry : 0/0
  4723 ;;		On exit  : 0/0
  4724 ;;		Unchanged: 0/0
  4725 ;; Data sizes:     COMRAM   BANK0   BANK1   BANK2   BANK3
  4726 ;;      Params:         0       2       0       0       0
  4727 ;;      Locals:         0       2       0       0       0
  4728 ;;      Temps:          0       0       0       0       0
  4729 ;;      Totals:         0       4       0       0       0
  4730 ;;Total ram usage:        4 bytes
  4731 ;; Hardware stack levels used:    1
  4732 ;; This function calls:
  4733 ;;		Nothing
  4734 ;; This function is called by:
  4735 ;;		_timer0_int_handler
  4736 ;; This function uses a non-reentrant model
  4737 ;;
  4738                           
  4739                           	psect	text35
  4740  00171E                     __ptext35:
  4741                           	opt stack 0
  4742  00171E                     _WriteTimer0:
  4743                           	opt stack 18
  4744                           
  4745                           ;incstack = 0
  4746  00171E  C080  F082         	movff	WriteTimer0@timer0,WriteTimer0@timer
  4747  001722  C081  F083         	movff	WriteTimer0@timer0+1,WriteTimer0@timer+1
  4748  001726  C083  FFD7         	movff	WriteTimer0@timer+1,4055	;volatile
  4749  00172A  C082  FFD6         	movff	WriteTimer0@timer,4054	;volatile
  4750  00172E  0012               	return	
  4751  001730                     __end_of_WriteTimer0:
  4752                           	opt stack 0
  4753                           pclatu	equ	0xFFB
  4754                           pclath	equ	0xFFA
  4755                           tblptru	equ	0xFF8
  4756                           tblptrh	equ	0xFF7
  4757                           tblptrl	equ	0xFF6
  4758                           tablat	equ	0xFF5
  4759                           prodh	equ	0xFF4
  4760                           prodl	equ	0xFF3
  4761                           intcon	equ	0xFF2
  4762                           postinc0	equ	0xFEE
  4763                           fsr0h	equ	0xFEA
  4764                           fsr0l	equ	0xFE9
  4765                           wreg	equ	0xFE8
  4766                           indf1	equ	0xFE7
  4767                           fsr1h	equ	0xFE2
  4768                           fsr1l	equ	0xFE1
  4769                           bsr	equ	0xFE0
  4770                           indf2	equ	0xFDF
  4771                           postinc2	equ	0xFDE
  4772                           postdec2	equ	0xFDD
  4773                           fsr2h	equ	0xFDA
  4774                           fsr2l	equ	0xFD9
  4775                           status	equ	0xFD8
  4776                           
  4777 ;; *************** function _FromMainHigh_recvmsg *****************
  4778 ;; Defined at:
  4779 ;;		line 183 in file "../src/messages.c"
  4780 ;; Parameters:    Size  Location     Type
  4781 ;;  maxlength       1    wreg     unsigned char 
  4782 ;;  msgtype         2   24[BANK0 ] PTR unsigned char 
  4783 ;;		 -> timer0_int_handler@msgtype(2), 
  4784 ;;  data            2   26[BANK0 ] PTR void 
  4785 ;;		 -> timer0_int_handler@val(2), 
  4786 ;; Auto vars:     Size  Location     Type
  4787 ;;  maxlength       1   28[BANK0 ] unsigned char 
  4788 ;; Return value:  Size  Location     Type
  4789 ;;                  1    wreg      char 
  4790 ;; Registers used:
  4791 ;;		wreg, fsr1l, fsr1h, fsr2l, fsr2h, status,2, status,0, prodl, prodh, cstack
  4792 ;; Tracked objects:
  4793 ;;		On entry : 0/0
  4794 ;;		On exit  : 0/0
  4795 ;;		Unchanged: 0/0
  4796 ;; Data sizes:     COMRAM   BANK0   BANK1   BANK2   BANK3
  4797 ;;      Params:         0       4       0       0       0
  4798 ;;      Locals:         0       1       0       0       0
  4799 ;;      Temps:          0       0       0       0       0
  4800 ;;      Totals:         0       5       0       0       0
  4801 ;;Total ram usage:        5 bytes
  4802 ;; Hardware stack levels used:    1
  4803 ;; Hardware stack levels required when called:    2
  4804 ;; This function calls:
  4805 ;;		i2_recv_msg
  4806 ;; This function is called by:
  4807 ;;		_timer0_int_handler
  4808 ;; This function uses a non-reentrant model
  4809 ;;
  4810                           
  4811                           	psect	text36
  4812  001432                     __ptext36:
  4813                           	opt stack 0
  4814  001432                     _FromMainHigh_recvmsg:
  4815                           	opt stack 16
  4816                           
  4817                           ;incstack = 0
  4818                           ;FromMainHigh_recvmsg@maxlength stored from wreg
  4819  001432  CFE8 F09C          	movff	wreg,FromMainHigh_recvmsg@maxlength
  4820                           
  4821                           ;messages.c: 189: return (recv_msg(&FromMainHigh_MQ, maxlength, msgtype, data));
  4822  001436  0101               	movlb	1	; () banked
  4823  001438  0E01               	movlw	high _FromMainHigh_MQ
  4824  00143A  0100               	movlb	0	; () banked
  4825  00143C  0100               	movlb	0	; () banked
  4826  00143E  6F8B               	movwf	(i2recv_msg@qptr+1)& (0+255),b
  4827  001440  0101               	movlb	1	; () banked
  4828  001442  0E00               	movlw	low _FromMainHigh_MQ
  4829  001444  0100               	movlb	0	; () banked
  4830  001446  0100               	movlb	0	; () banked
  4831  001448  6F8A               	movwf	i2recv_msg@qptr& (0+255),b
  4832  00144A  C09C  F08C         	movff	FromMainHigh_recvmsg@maxlength,i2recv_msg@maxlength
  4833  00144E  0100               	movlb	0	; () banked
  4834  001450  0100               	movlb	0	; () banked
  4835  001452  C099  F08E         	movff	FromMainHigh_recvmsg@msgtype+1,i2recv_msg@msgtype+1
  4836  001456  0100               	movlb	0	; () banked
  4837  001458  0100               	movlb	0	; () banked
  4838  00145A  C098  F08D         	movff	FromMainHigh_recvmsg@msgtype,i2recv_msg@msgtype
  4839  00145E  0100               	movlb	0	; () banked
  4840  001460  0100               	movlb	0	; () banked
  4841  001462  C09B  F090         	movff	FromMainHigh_recvmsg@data+1,i2recv_msg@data+1
  4842  001466  0100               	movlb	0	; () banked
  4843  001468  0100               	movlb	0	; () banked
  4844  00146A  C09A  F08F         	movff	FromMainHigh_recvmsg@data,i2recv_msg@data
  4845  00146E  EC38  F004         	call	i2_recv_msg	;wreg free
  4846  001472  0012               	return	
  4847  001474                     __end_of_FromMainHigh_recvmsg:
  4848                           	opt stack 0
  4849                           pclatu	equ	0xFFB
  4850                           pclath	equ	0xFFA
  4851                           tblptru	equ	0xFF8
  4852                           tblptrh	equ	0xFF7
  4853                           tblptrl	equ	0xFF6
  4854                           tablat	equ	0xFF5
  4855                           prodh	equ	0xFF4
  4856                           prodl	equ	0xFF3
  4857                           intcon	equ	0xFF2
  4858                           postinc0	equ	0xFEE
  4859                           fsr0h	equ	0xFEA
  4860                           fsr0l	equ	0xFE9
  4861                           wreg	equ	0xFE8
  4862                           indf1	equ	0xFE7
  4863                           fsr1h	equ	0xFE2
  4864                           fsr1l	equ	0xFE1
  4865                           bsr	equ	0xFE0
  4866                           indf2	equ	0xFDF
  4867                           postinc2	equ	0xFDE
  4868                           postdec2	equ	0xFDD
  4869                           fsr2h	equ	0xFDA
  4870                           fsr2l	equ	0xFD9
  4871                           status	equ	0xFD8
  4872                           
  4873 ;; *************** function i2_recv_msg *****************
  4874 ;; Defined at:
  4875 ;;		line 63 in file "../src/messages.c"
  4876 ;; Parameters:    Size  Location     Type
  4877 ;;  qptr            2   10[BANK0 ] PTR struct __msg_queue
  4878 ;;		 -> FromMainHigh_MQ(54), FromMainLow_MQ(54), ToMainHigh_MQ(54), ToMainLow_MQ(54), 
  4879 ;;  maxlength       1   12[BANK0 ] unsigned char 
  4880 ;;  msgtype         2   13[BANK0 ] PTR unsigned char 
  4881 ;;		 -> timer0_int_handler@msgtype(2), main@msgtype(1), 
  4882 ;;  data            2   15[BANK0 ] PTR void 
  4883 ;;		 -> timer0_int_handler@val(2), main@msgbuffer(11), 
  4884 ;; Auto vars:     Size  Location     Type
  4885 ;;  recv_msg        2   22[BANK0 ] PTR struct __msg
  4886 ;;		 -> FromMainLow_MQ.queue(52), FromMainHigh_MQ.queue(52), ToMainHigh_MQ.queue(52), ToMainLow_MQ.queue(52), 
  4887 ;;		 -> FromMainHigh_MQ(54), FromMainLow_MQ(54), ToMainHigh_MQ(54), ToMainLow_MQ(54), 
  4888 ;;  recv_msg        2   20[BANK0 ] unsigned int 
  4889 ;;  recv_msg        1   19[BANK0 ] unsigned char 
  4890 ;; Return value:  Size  Location     Type
  4891 ;;                  1    wreg      char 
  4892 ;; Registers used:
  4893 ;;		wreg, fsr1l, fsr1h, fsr2l, fsr2h, status,2, status,0, prodl, prodh, cstack
  4894 ;; Tracked objects:
  4895 ;;		On entry : 0/0
  4896 ;;		On exit  : 0/0
  4897 ;;		Unchanged: 0/0
  4898 ;; Data sizes:     COMRAM   BANK0   BANK1   BANK2   BANK3
  4899 ;;      Params:         0       7       0       0       0
  4900 ;;      Locals:         0       5       0       0       0
  4901 ;;      Temps:          0       2       0       0       0
  4902 ;;      Totals:         0      14       0       0       0
  4903 ;;Total ram usage:       14 bytes
  4904 ;; Hardware stack levels used:    1
  4905 ;; Hardware stack levels required when called:    1
  4906 ;; This function calls:
  4907 ;;		i2_memcpy
  4908 ;; This function is called by:
  4909 ;;		_FromMainHigh_recvmsg
  4910 ;; This function uses a non-reentrant model
  4911 ;;
  4912                           
  4913                           	psect	text37
  4914  000870                     __ptext37:
  4915                           	opt stack 0
  4916  000870                     i2_recv_msg:
  4917                           	opt stack 16
  4918                           
  4919                           ;messages.c: 64: unsigned char slot;
  4920                           ;messages.c: 68: msg *qmsg;
  4921                           ;messages.c: 69: size_t tlength;
  4922                           ;messages.c: 72: slot = qptr->cur_read_ind;
  4923                           
  4924                           ;incstack = 0
  4925  000870  0100               	movlb	0	; () banked
  4926  000872  EE20 F035          	lfsr	2,53
  4927  000876  0100               	movlb	0	; () banked
  4928  000878  518A               	movf	i2recv_msg@qptr& (0+255),w,b
  4929  00087A  26D9               	addwf	fsr2l,f,c
  4930  00087C  0100               	movlb	0	; () banked
  4931  00087E  518B               	movf	(i2recv_msg@qptr+1)& (0+255),w,b
  4932  000880  22DA               	addwfc	fsr2h,f,c
  4933  000882  50DF               	movf	indf2,w,c
  4934  000884  0100               	movlb	0	; () banked
  4935  000886  0100               	movlb	0	; () banked
  4936  000888  6F93               	movwf	i2recv_msg@slot& (0+255),b
  4937                           
  4938                           ; BSR set to: 0
  4939                           ;messages.c: 73: qmsg = &(qptr->queue[slot]);
  4940  00088A  0100               	movlb	0	; () banked
  4941  00088C  0100               	movlb	0	; () banked
  4942  00088E  5193               	movf	i2recv_msg@slot& (0+255),w,b
  4943  000890  0D0D               	mullw	13
  4944  000892  50F3               	movf	prodl,w,c
  4945  000894  0100               	movlb	0	; () banked
  4946  000896  0100               	movlb	0	; () banked
  4947  000898  258A               	addwf	i2recv_msg@qptr& (0+255),w,b
  4948  00089A  0100               	movlb	0	; () banked
  4949  00089C  0100               	movlb	0	; () banked
  4950  00089E  6F96               	movwf	i2recv_msg@qmsg& (0+255),b
  4951  0008A0  50F4               	movf	prodh,w,c
  4952  0008A2  0100               	movlb	0	; () banked
  4953  0008A4  0100               	movlb	0	; () banked
  4954  0008A6  218B               	addwfc	(i2recv_msg@qptr+1)& (0+255),w,b
  4955  0008A8  0100               	movlb	0	; () banked
  4956  0008AA  6F97               	movwf	(i2recv_msg@qmsg+1)& (0+255),b
  4957                           
  4958                           ; BSR set to: 0
  4959                           ;messages.c: 74: if (qmsg->full == 1) {
  4960  0008AC  0E01               	movlw	1
  4961  0008AE  C096  FFD9         	movff	i2recv_msg@qmsg,fsr2l
  4962  0008B2  C097  FFDA         	movff	i2recv_msg@qmsg+1,fsr2h
  4963  0008B6  62DF               	cpfseq	indf2,c
  4964  0008B8  D074               	goto	i2l3545
  4965                           
  4966                           ; BSR set to: 0
  4967                           ;messages.c: 76: if (qmsg->length > maxlength) {
  4968  0008BA  0100               	movlb	0	; () banked
  4969  0008BC  EE20 F001          	lfsr	2,1
  4970  0008C0  0100               	movlb	0	; () banked
  4971  0008C2  5196               	movf	i2recv_msg@qmsg& (0+255),w,b
  4972  0008C4  26D9               	addwf	fsr2l,f,c
  4973  0008C6  0100               	movlb	0	; () banked
  4974  0008C8  5197               	movf	(i2recv_msg@qmsg+1)& (0+255),w,b
  4975  0008CA  22DA               	addwfc	fsr2h,f,c
  4976  0008CC  50DF               	movf	indf2,w,c
  4977  0008CE  0100               	movlb	0	; () banked
  4978  0008D0  0100               	movlb	0	; () banked
  4979  0008D2  5D8C               	subwf	i2recv_msg@maxlength& (0+255),w,b
  4980  0008D4  B0D8               	btfsc	status,0,c
  4981  0008D6  D002               	goto	i2l3529
  4982                           
  4983                           ; BSR set to: 0
  4984                           ;messages.c: 77: return (-3);
  4985  0008D8  0EFD               	movlw	253
  4986  0008DA  0012               	return	
  4987  0008DC                     i2l3529:
  4988                           
  4989                           ; BSR set to: 0
  4990                           ;messages.c: 78: }
  4991                           ;messages.c: 80: tlength = qmsg->length;
  4992  0008DC  0100               	movlb	0	; () banked
  4993  0008DE  EE20 F001          	lfsr	2,1
  4994  0008E2  0100               	movlb	0	; () banked
  4995  0008E4  5196               	movf	i2recv_msg@qmsg& (0+255),w,b
  4996  0008E6  26D9               	addwf	fsr2l,f,c
  4997  0008E8  0100               	movlb	0	; () banked
  4998  0008EA  5197               	movf	(i2recv_msg@qmsg+1)& (0+255),w,b
  4999  0008EC  22DA               	addwfc	fsr2h,f,c
  5000  0008EE  50DF               	movf	indf2,w,c
  5001  0008F0  0100               	movlb	0	; () banked
  5002  0008F2  6F91               	movwf	??i2_recv_msg& (0+255),b
  5003  0008F4  0100               	movlb	0	; () banked
  5004  0008F6  5191               	movf	??i2_recv_msg& (0+255),w,b
  5005  0008F8  0100               	movlb	0	; () banked
  5006  0008FA  0100               	movlb	0	; () banked
  5007  0008FC  6F94               	movwf	i2recv_msg@tlength& (0+255),b
  5008  0008FE  0100               	movlb	0	; () banked
  5009  000900  6B95               	clrf	(i2recv_msg@tlength+1)& (0+255),b
  5010                           
  5011                           ; BSR set to: 0
  5012                           ;messages.c: 81: memcpy(data, qmsg->data, tlength);
  5013  000902  0100               	movlb	0	; () banked
  5014  000904  0100               	movlb	0	; () banked
  5015  000906  C090  F081         	movff	i2recv_msg@data+1,i2memcpy@d1+1
  5016  00090A  0100               	movlb	0	; () banked
  5017  00090C  0100               	movlb	0	; () banked
  5018  00090E  C08F  F080         	movff	i2recv_msg@data,i2memcpy@d1
  5019  000912  0E03               	movlw	3
  5020  000914  0100               	movlb	0	; () banked
  5021  000916  0100               	movlb	0	; () banked
  5022  000918  2596               	addwf	i2recv_msg@qmsg& (0+255),w,b
  5023  00091A  0100               	movlb	0	; () banked
  5024  00091C  6F91               	movwf	??i2_recv_msg& (0+255),b
  5025  00091E  0E00               	movlw	0
  5026  000920  0100               	movlb	0	; () banked
  5027  000922  0100               	movlb	0	; () banked
  5028  000924  2197               	addwfc	(i2recv_msg@qmsg+1)& (0+255),w,b
  5029  000926  0100               	movlb	0	; () banked
  5030  000928  6F92               	movwf	(??i2_recv_msg+1)& (0+255),b
  5031  00092A  C091  F082         	movff	??i2_recv_msg,i2memcpy@s1
  5032  00092E  C092  F083         	movff	??i2_recv_msg+1,i2memcpy@s1+1
  5033  000932  C094  F084         	movff	i2recv_msg@tlength,i2memcpy@n
  5034  000936  C095  F085         	movff	i2recv_msg@tlength+1,i2memcpy@n+1
  5035  00093A  EC19  F009         	call	i2_memcpy	;wreg free
  5036                           
  5037                           ;messages.c: 87: qptr->cur_read_ind = (qptr->cur_read_ind + 1) % 4;
  5038  00093E  0100               	movlb	0	; () banked
  5039  000940  EE20 F035          	lfsr	2,53
  5040  000944  0100               	movlb	0	; () banked
  5041  000946  518A               	movf	i2recv_msg@qptr& (0+255),w,b
  5042  000948  26D9               	addwf	fsr2l,f,c
  5043  00094A  0100               	movlb	0	; () banked
  5044  00094C  518B               	movf	(i2recv_msg@qptr+1)& (0+255),w,b
  5045  00094E  22DA               	addwfc	fsr2h,f,c
  5046  000950  0100               	movlb	0	; () banked
  5047  000952  EE10 F035          	lfsr	1,53
  5048  000956  0100               	movlb	0	; () banked
  5049  000958  518A               	movf	i2recv_msg@qptr& (0+255),w,b
  5050  00095A  26E1               	addwf	fsr1l,f,c
  5051  00095C  0100               	movlb	0	; () banked
  5052  00095E  518B               	movf	(i2recv_msg@qptr+1)& (0+255),w,b
  5053  000960  22E2               	addwfc	fsr1h,f,c
  5054  000962  50E7               	movf	indf1,w,c
  5055  000964  0100               	movlb	0	; () banked
  5056  000966  6F91               	movwf	??i2_recv_msg& (0+255),b
  5057  000968  0100               	movlb	0	; () banked
  5058  00096A  2991               	incf	??i2_recv_msg& (0+255),w,b
  5059  00096C  0B03               	andlw	3
  5060  00096E  6EDF               	movwf	indf2,c
  5061                           
  5062                           ; BSR set to: 0
  5063                           ;messages.c: 89: (*msgtype) = qmsg->msgtype;
  5064  000970  0100               	movlb	0	; () banked
  5065  000972  EE20 F002          	lfsr	2,2
  5066  000976  0100               	movlb	0	; () banked
  5067  000978  5196               	movf	i2recv_msg@qmsg& (0+255),w,b
  5068  00097A  26D9               	addwf	fsr2l,f,c
  5069  00097C  0100               	movlb	0	; () banked
  5070  00097E  5197               	movf	(i2recv_msg@qmsg+1)& (0+255),w,b
  5071  000980  22DA               	addwfc	fsr2h,f,c
  5072  000982  C08D  FFE1         	movff	i2recv_msg@msgtype,fsr1l
  5073  000986  C08E  FFE2         	movff	i2recv_msg@msgtype+1,fsr1h
  5074  00098A  CFDF FFE7          	movff	indf2,indf1
  5075                           
  5076                           ; BSR set to: 0
  5077                           ;messages.c: 91: qmsg->full = 0;
  5078  00098E  C096  FFD9         	movff	i2recv_msg@qmsg,fsr2l
  5079  000992  C097  FFDA         	movff	i2recv_msg@qmsg+1,fsr2h
  5080  000996  0E00               	movlw	0
  5081  000998  6EDF               	movwf	indf2,c
  5082                           
  5083                           ; BSR set to: 0
  5084                           ;messages.c: 92: return (tlength);
  5085  00099A  0100               	movlb	0	; () banked
  5086  00099C  0100               	movlb	0	; () banked
  5087  00099E  5194               	movf	i2recv_msg@tlength& (0+255),w,b
  5088  0009A0  0012               	return	
  5089  0009A2                     i2l3545:
  5090                           
  5091                           ; BSR set to: 0
  5092                           ;messages.c: 94: return (-4);
  5093  0009A2  0EFC               	movlw	252
  5094  0009A4  0012               	return	
  5095  0009A6                     __end_ofi2_recv_msg:
  5096                           	opt stack 0
  5097                           pclatu	equ	0xFFB
  5098                           pclath	equ	0xFFA
  5099                           tblptru	equ	0xFF8
  5100                           tblptrh	equ	0xFF7
  5101                           tblptrl	equ	0xFF6
  5102                           tablat	equ	0xFF5
  5103                           prodh	equ	0xFF4
  5104                           prodl	equ	0xFF3
  5105                           intcon	equ	0xFF2
  5106                           postinc0	equ	0xFEE
  5107                           fsr0h	equ	0xFEA
  5108                           fsr0l	equ	0xFE9
  5109                           wreg	equ	0xFE8
  5110                           indf1	equ	0xFE7
  5111                           fsr1h	equ	0xFE2
  5112                           fsr1l	equ	0xFE1
  5113                           bsr	equ	0xFE0
  5114                           indf2	equ	0xFDF
  5115                           postinc2	equ	0xFDE
  5116                           postdec2	equ	0xFDD
  5117                           fsr2h	equ	0xFDA
  5118                           fsr2l	equ	0xFD9
  5119                           status	equ	0xFD8
  5120                           
  5121 ;; *************** function _i2c_int_handler *****************
  5122 ;; Defined at:
  5123 ;;		line 78 in file "../src/my_i2c.c"
  5124 ;; Parameters:    Size  Location     Type
  5125 ;;		None
  5126 ;; Auto vars:     Size  Location     Type
  5127 ;;  error_buf       3   28[BANK0 ] unsigned char [3]
  5128 ;;  data_read       1   36[BANK0 ] unsigned char 
  5129 ;;  msg_ready       1   35[BANK0 ] unsigned char 
  5130 ;;  i2c_data        1   34[BANK0 ] unsigned char 
  5131 ;;  msg_to_send     1   33[BANK0 ] unsigned char 
  5132 ;;  overrun_erro    1   32[BANK0 ] unsigned char 
  5133 ;;  data_written    1   31[BANK0 ] unsigned char 
  5134 ;; Return value:  Size  Location     Type
  5135 ;;		None               void
  5136 ;; Registers used:
  5137 ;;		wreg, fsr1l, fsr1h, fsr2l, fsr2h, status,2, status,0, prodl, prodh, cstack
  5138 ;; Tracked objects:
  5139 ;;		On entry : 0/0
  5140 ;;		On exit  : 0/0
  5141 ;;		Unchanged: 0/0
  5142 ;; Data sizes:     COMRAM   BANK0   BANK1   BANK2   BANK3
  5143 ;;      Params:         0       0       0       0       0
  5144 ;;      Locals:         0       9       0       0       0
  5145 ;;      Temps:          0       2       0       0       0
  5146 ;;      Totals:         0      11       0       0       0
  5147 ;;Total ram usage:       11 bytes
  5148 ;; Hardware stack levels used:    1
  5149 ;; Hardware stack levels required when called:    3
  5150 ;; This function calls:
  5151 ;;		_ToMainHigh_sendmsg
  5152 ;;		_handle_start
  5153 ;;		_readMessages
  5154 ;; This function is called by:
  5155 ;;		_InterruptHandlerHigh
  5156 ;; This function uses a non-reentrant model
  5157 ;;
  5158                           
  5159                           	psect	text38
  5160  0000BA                     __ptext38:
  5161                           	opt stack 0
  5162  0000BA                     _i2c_int_handler:
  5163                           	opt stack 16
  5164                           
  5165                           ;my_i2c.c: 79: unsigned char i2c_data;
  5166                           ;my_i2c.c: 80: unsigned char data_read = 0;
  5167                           
  5168                           ; BSR set to: 0
  5169                           ;incstack = 0
  5170  0000BA  0100               	movlb	0	; () banked
  5171  0000BC  6F9A               	movwf	??_i2c_int_handler& (0+255),b
  5172  0000BE  0E00               	movlw	0
  5173  0000C0  0100               	movlb	0	; () banked
  5174  0000C2  0100               	movlb	0	; () banked
  5175  0000C4  6FA4               	movwf	i2c_int_handler@data_read& (0+255),b
  5176  0000C6  0100               	movlb	0	; () banked
  5177  0000C8  519A               	movf	??_i2c_int_handler& (0+255),w,b
  5178                           
  5179                           ;my_i2c.c: 81: unsigned char data_written = 0;
  5180  0000CA  0100               	movlb	0	; () banked
  5181  0000CC  6F9A               	movwf	??_i2c_int_handler& (0+255),b
  5182  0000CE  0E00               	movlw	0
  5183  0000D0  0100               	movlb	0	; () banked
  5184  0000D2  0100               	movlb	0	; () banked
  5185  0000D4  6F9F               	movwf	i2c_int_handler@data_written& (0+255),b
  5186  0000D6  0100               	movlb	0	; () banked
  5187  0000D8  519A               	movf	??_i2c_int_handler& (0+255),w,b
  5188                           
  5189                           ;my_i2c.c: 82: unsigned char msg_ready = 0;
  5190  0000DA  0100               	movlb	0	; () banked
  5191  0000DC  6F9A               	movwf	??_i2c_int_handler& (0+255),b
  5192  0000DE  0E00               	movlw	0
  5193  0000E0  0100               	movlb	0	; () banked
  5194  0000E2  0100               	movlb	0	; () banked
  5195  0000E4  6FA3               	movwf	i2c_int_handler@msg_ready& (0+255),b
  5196  0000E6  0100               	movlb	0	; () banked
  5197  0000E8  519A               	movf	??_i2c_int_handler& (0+255),w,b
  5198                           
  5199                           ;my_i2c.c: 83: unsigned char msg_to_send = 0;
  5200  0000EA  0100               	movlb	0	; () banked
  5201  0000EC  6F9A               	movwf	??_i2c_int_handler& (0+255),b
  5202  0000EE  0E00               	movlw	0
  5203  0000F0  0100               	movlb	0	; () banked
  5204  0000F2  0100               	movlb	0	; () banked
  5205  0000F4  6FA1               	movwf	i2c_int_handler@msg_to_send& (0+255),b
  5206  0000F6  0100               	movlb	0	; () banked
  5207  0000F8  519A               	movf	??_i2c_int_handler& (0+255),w,b
  5208                           
  5209                           ;my_i2c.c: 84: unsigned char overrun_error = 0;
  5210  0000FA  0100               	movlb	0	; () banked
  5211  0000FC  6F9A               	movwf	??_i2c_int_handler& (0+255),b
  5212  0000FE  0E00               	movlw	0
  5213  000100  0100               	movlb	0	; () banked
  5214  000102  0100               	movlb	0	; () banked
  5215  000104  6FA0               	movwf	i2c_int_handler@overrun_error& (0+255),b
  5216  000106  0100               	movlb	0	; () banked
  5217  000108  519A               	movf	??_i2c_int_handler& (0+255),w,b
  5218                           
  5219                           ; BSR set to: 0
  5220                           ;my_i2c.c: 85: unsigned char error_buf[3];
  5221                           ;my_i2c.c: 88: if (SSPCON1bits.SSPOV == 1) {
  5222  00010A  ACC6               	btfss	4038,6,c	;volatile
  5223  00010C  D020               	goto	i2l2943
  5224                           
  5225                           ; BSR set to: 0
  5226                           ;my_i2c.c: 89: SSPCON1bits.SSPOV = 0;
  5227  00010E  9CC6               	bcf	4038,6,c	;volatile
  5228                           
  5229                           ; BSR set to: 0
  5230                           ;my_i2c.c: 93: ic_ptr->status = 0x5;
  5231  000110  EE20 F00C          	lfsr	2,12
  5232  000114  505E               	movf	_ic_ptr,w,c
  5233  000116  26D9               	addwf	fsr2l,f,c
  5234  000118  505F               	movf	_ic_ptr+1,w,c
  5235  00011A  22DA               	addwfc	fsr2h,f,c
  5236  00011C  0E05               	movlw	5
  5237  00011E  6EDF               	movwf	indf2,c
  5238                           
  5239                           ; BSR set to: 0
  5240                           ;my_i2c.c: 94: overrun_error = 1;
  5241  000120  0100               	movlb	0	; () banked
  5242  000122  6F9A               	movwf	??_i2c_int_handler& (0+255),b
  5243  000124  0E01               	movlw	1
  5244  000126  0100               	movlb	0	; () banked
  5245  000128  0100               	movlb	0	; () banked
  5246  00012A  6FA0               	movwf	i2c_int_handler@overrun_error& (0+255),b
  5247  00012C  0100               	movlb	0	; () banked
  5248  00012E  519A               	movf	??_i2c_int_handler& (0+255),w,b
  5249                           
  5250                           ; BSR set to: 0
  5251                           ;my_i2c.c: 95: ic_ptr->error_count++;
  5252  000130  EE20 F00E          	lfsr	2,14
  5253  000134  505E               	movf	_ic_ptr,w,c
  5254  000136  26D9               	addwf	fsr2l,f,c
  5255  000138  505F               	movf	_ic_ptr+1,w,c
  5256  00013A  22DA               	addwfc	fsr2h,f,c
  5257  00013C  2ADF               	incf	indf2,f,c
  5258                           
  5259                           ; BSR set to: 0
  5260                           ;my_i2c.c: 96: ic_ptr->error_code = 0x4;
  5261  00013E  EE20 F00D          	lfsr	2,13
  5262  000142  505E               	movf	_ic_ptr,w,c
  5263  000144  26D9               	addwf	fsr2l,f,c
  5264  000146  505F               	movf	_ic_ptr+1,w,c
  5265  000148  22DA               	addwfc	fsr2h,f,c
  5266  00014A  0E04               	movlw	4
  5267  00014C  6EDF               	movwf	indf2,c
  5268  00014E                     i2l2943:
  5269                           
  5270                           ; BSR set to: 0
  5271                           ;my_i2c.c: 97: }
  5272                           ;my_i2c.c: 99: if (SSPSTATbits.BF == 1) {
  5273  00014E  A0C7               	btfss	4039,0,c	;volatile
  5274  000150  D00A               	goto	i2l2949
  5275                           
  5276                           ; BSR set to: 0
  5277                           ;my_i2c.c: 100: i2c_data = SSPBUF;
  5278  000152  CFC9 F0A2          	movff	4041,i2c_int_handler@i2c_data	;volatile
  5279                           
  5280                           ; BSR set to: 0
  5281                           ;my_i2c.c: 101: data_read = 1;
  5282  000156  0100               	movlb	0	; () banked
  5283  000158  6F9A               	movwf	??_i2c_int_handler& (0+255),b
  5284  00015A  0E01               	movlw	1
  5285  00015C  0100               	movlb	0	; () banked
  5286  00015E  0100               	movlb	0	; () banked
  5287  000160  6FA4               	movwf	i2c_int_handler@data_read& (0+255),b
  5288  000162  0100               	movlb	0	; () banked
  5289  000164  519A               	movf	??_i2c_int_handler& (0+255),w,b
  5290  000166                     i2l2949:
  5291                           
  5292                           ; BSR set to: 0
  5293                           ;my_i2c.c: 102: }
  5294                           ;my_i2c.c: 104: if (!overrun_error) {
  5295  000166  0100               	movlb	0	; () banked
  5296  000168  0100               	movlb	0	; () banked
  5297  00016A  67A0               	tstfsz	i2c_int_handler@overrun_error& (0+255),b
  5298  00016C  D174               	goto	i2l270
  5299  00016E  D160               	goto	i2l3037
  5300  000170                     i2l272:
  5301                           
  5302                           ; BSR set to: 0
  5303                           ;my_i2c.c: 107: {
  5304                           ;my_i2c.c: 109: if (SSPSTATbits.S == 1) {
  5305  000170  A6C7               	btfss	4039,3,c	;volatile
  5306  000172  D171               	goto	i2l270
  5307                           
  5308                           ; BSR set to: 0
  5309                           ;my_i2c.c: 110: handle_start(data_read);
  5310  000174  0100               	movlb	0	; () banked
  5311  000176  0100               	movlb	0	; () banked
  5312  000178  51A4               	movf	i2c_int_handler@data_read& (0+255),w,b
  5313  00017A  EC63  F006         	call	_handle_start
  5314                           
  5315                           ;my_i2c.c: 112: if (ic_ptr->status == 0x8) {
  5316  00017E  EE20 F00C          	lfsr	2,12
  5317  000182  505E               	movf	_ic_ptr,w,c
  5318  000184  26D9               	addwf	fsr2l,f,c
  5319  000186  505F               	movf	_ic_ptr+1,w,c
  5320  000188  22DA               	addwfc	fsr2h,f,c
  5321  00018A  0E08               	movlw	8
  5322  00018C  62DF               	cpfseq	indf2,c
  5323  00018E  D163               	goto	i2l270
  5324                           
  5325                           ;my_i2c.c: 113: data_read = 0;
  5326  000190  0100               	movlb	0	; () banked
  5327  000192  6F9A               	movwf	??_i2c_int_handler& (0+255),b
  5328  000194  0E00               	movlw	0
  5329  000196  0100               	movlb	0	; () banked
  5330  000198  0100               	movlb	0	; () banked
  5331  00019A  6FA4               	movwf	i2c_int_handler@data_read& (0+255),b
  5332  00019C  0100               	movlb	0	; () banked
  5333  00019E  519A               	movf	??_i2c_int_handler& (0+255),w,b
  5334                           
  5335                           ;my_i2c.c: 114: msg_to_send = 1;
  5336  0001A0  0100               	movlb	0	; () banked
  5337  0001A2  6F9A               	movwf	??_i2c_int_handler& (0+255),b
  5338  0001A4  0E01               	movlw	1
  5339  0001A6  0100               	movlb	0	; () banked
  5340  0001A8  0100               	movlb	0	; () banked
  5341  0001AA  6FA1               	movwf	i2c_int_handler@msg_to_send& (0+255),b
  5342  0001AC  D136               	goto	L6
  5343  0001AE                     i2l276:
  5344                           
  5345                           ; BSR set to: 0
  5346                           ;my_i2c.c: 120: {
  5347                           ;my_i2c.c: 122: if (SSPSTATbits.P == 1) {
  5348  0001AE  A8C7               	btfss	4039,4,c	;volatile
  5349  0001B0  D027               	goto	i2l2969
  5350                           
  5351                           ; BSR set to: 0
  5352                           ;my_i2c.c: 125: ic_ptr->event_count++;
  5353  0001B2  EE20 F00B          	lfsr	2,11
  5354  0001B6  505E               	movf	_ic_ptr,w,c
  5355  0001B8  26D9               	addwf	fsr2l,f,c
  5356  0001BA  505F               	movf	_ic_ptr+1,w,c
  5357  0001BC  22DA               	addwfc	fsr2h,f,c
  5358  0001BE  2ADF               	incf	indf2,f,c
  5359                           
  5360                           ; BSR set to: 0
  5361                           ;my_i2c.c: 126: if (data_read) {
  5362  0001C0  0100               	movlb	0	; () banked
  5363  0001C2  0100               	movlb	0	; () banked
  5364  0001C4  51A4               	movf	i2c_int_handler@data_read& (0+255),w,b
  5365  0001C6  B4D8               	btfsc	status,2,c
  5366  0001C8  D12B               	goto	L8
  5367                           
  5368                           ; BSR set to: 0
  5369                           ;my_i2c.c: 127: if (SSPSTATbits.D_A == 0) {
  5370  0001CA  BAC7               	btfsc	4039,5,c	;volatile
  5371  0001CC  D009               	goto	i2l2967
  5372                           
  5373                           ; BSR set to: 0
  5374                           ;my_i2c.c: 128: msg_ready = 1;
  5375  0001CE  0100               	movlb	0	; () banked
  5376  0001D0  6F9A               	movwf	??_i2c_int_handler& (0+255),b
  5377  0001D2  0E01               	movlw	1
  5378  0001D4  0100               	movlb	0	; () banked
  5379  0001D6  0100               	movlb	0	; () banked
  5380  0001D8  6FA3               	movwf	i2c_int_handler@msg_ready& (0+255),b
  5381  0001DA  0100               	movlb	0	; () banked
  5382  0001DC  519A               	movf	??_i2c_int_handler& (0+255),w,b
  5383                           
  5384                           ;my_i2c.c: 129: } else {
  5385  0001DE  D120               	goto	L8
  5386  0001E0                     i2l2967:
  5387                           
  5388                           ; BSR set to: 0
  5389                           ;my_i2c.c: 130: ic_ptr->error_count++;
  5390  0001E0  EE20 F00E          	lfsr	2,14
  5391  0001E4  505E               	movf	_ic_ptr,w,c
  5392  0001E6  26D9               	addwf	fsr2l,f,c
  5393  0001E8  505F               	movf	_ic_ptr+1,w,c
  5394  0001EA  22DA               	addwfc	fsr2h,f,c
  5395  0001EC  2ADF               	incf	indf2,f,c
  5396                           
  5397                           ;my_i2c.c: 131: ic_ptr->error_code = 0x6;
  5398  0001EE  EE20 F00D          	lfsr	2,13
  5399  0001F2  505E               	movf	_ic_ptr,w,c
  5400  0001F4  26D9               	addwf	fsr2l,f,c
  5401  0001F6  505F               	movf	_ic_ptr+1,w,c
  5402  0001F8  22DA               	addwfc	fsr2h,f,c
  5403  0001FA  0E06               	movlw	6
  5404  0001FC  6EDF               	movwf	indf2,c
  5405                           
  5406                           ; BSR set to: 0
  5407  0001FE  D110               	goto	L8
  5408  000200                     i2l2969:
  5409                           
  5410                           ; BSR set to: 0
  5411  000200  0100               	movlb	0	; () banked
  5412  000202  0100               	movlb	0	; () banked
  5413  000204  51A4               	movf	i2c_int_handler@data_read& (0+255),w,b
  5414  000206  B4D8               	btfsc	status,2,c
  5415  000208  D126               	goto	i2l270
  5416                           
  5417                           ; BSR set to: 0
  5418                           ;my_i2c.c: 136: ic_ptr->event_count++;
  5419  00020A  EE20 F00B          	lfsr	2,11
  5420  00020E  505E               	movf	_ic_ptr,w,c
  5421  000210  26D9               	addwf	fsr2l,f,c
  5422  000212  505F               	movf	_ic_ptr+1,w,c
  5423  000214  22DA               	addwfc	fsr2h,f,c
  5424  000216  2ADF               	incf	indf2,f,c
  5425                           
  5426                           ; BSR set to: 0
  5427                           ;my_i2c.c: 137: if (SSPSTATbits.D_A == 0) {
  5428  000218  BAC7               	btfsc	4039,5,c	;volatile
  5429  00021A  D013               	goto	i2l2985
  5430                           
  5431                           ; BSR set to: 0
  5432                           ;my_i2c.c: 138: if (SSPSTATbits.R_W == 0) {
  5433  00021C  B4C7               	btfsc	4039,2,c	;volatile
  5434  00021E  D008               	goto	i2l2979
  5435                           
  5436                           ; BSR set to: 0
  5437                           ;my_i2c.c: 139: ic_ptr->status = 0x7;
  5438  000220  EE20 F00C          	lfsr	2,12
  5439  000224  505E               	movf	_ic_ptr,w,c
  5440  000226  26D9               	addwf	fsr2l,f,c
  5441  000228  505F               	movf	_ic_ptr+1,w,c
  5442  00022A  22DA               	addwfc	fsr2h,f,c
  5443  00022C  0E07               	movlw	7
  5444  00022E  D05A               	goto	L5
  5445  000230                     i2l2979:
  5446                           
  5447                           ; BSR set to: 0
  5448                           ;my_i2c.c: 141: ic_ptr->status = 0x8;
  5449  000230  EE20 F00C          	lfsr	2,12
  5450  000234  505E               	movf	_ic_ptr,w,c
  5451  000236  26D9               	addwf	fsr2l,f,c
  5452  000238  505F               	movf	_ic_ptr+1,w,c
  5453  00023A  22DA               	addwfc	fsr2h,f,c
  5454  00023C  0E08               	movlw	8
  5455  00023E  6EDF               	movwf	indf2,c
  5456  000240  D0DE               	goto	L9
  5457  000242                     i2l2985:
  5458                           
  5459                           ; BSR set to: 0
  5460                           ;my_i2c.c: 147: ic_ptr->error_count++;
  5461  000242  EE20 F00E          	lfsr	2,14
  5462  000246  505E               	movf	_ic_ptr,w,c
  5463  000248  26D9               	addwf	fsr2l,f,c
  5464  00024A  505F               	movf	_ic_ptr+1,w,c
  5465  00024C  22DA               	addwfc	fsr2h,f,c
  5466  00024E  2ADF               	incf	indf2,f,c
  5467                           
  5468                           ;my_i2c.c: 148: ic_ptr->status = 0x5;
  5469  000250  EE20 F00C          	lfsr	2,12
  5470  000254  505E               	movf	_ic_ptr,w,c
  5471  000256  26D9               	addwf	fsr2l,f,c
  5472  000258  505F               	movf	_ic_ptr+1,w,c
  5473  00025A  22DA               	addwfc	fsr2h,f,c
  5474  00025C  0E05               	movlw	5
  5475  00025E  6EDF               	movwf	indf2,c
  5476                           
  5477                           ;my_i2c.c: 149: ic_ptr->error_code = 0x6;
  5478  000260  EE20 F00D          	lfsr	2,13
  5479  000264  505E               	movf	_ic_ptr,w,c
  5480  000266  26D9               	addwf	fsr2l,f,c
  5481  000268  505F               	movf	_ic_ptr+1,w,c
  5482  00026A  22DA               	addwfc	fsr2h,f,c
  5483  00026C  0E06               	movlw	6
  5484  00026E  D03A               	goto	L5
  5485  000270                     i2l2987:
  5486                           
  5487                           ; BSR set to: 0
  5488                           ;my_i2c.c: 155: {
  5489                           ;my_i2c.c: 156: if (ic_ptr->outbufind < ic_ptr->outbuflen) {
  5490  000270  EE20 F01A          	lfsr	2,26
  5491  000274  505E               	movf	_ic_ptr,w,c
  5492  000276  26D9               	addwf	fsr2l,f,c
  5493  000278  505F               	movf	_ic_ptr+1,w,c
  5494  00027A  22DA               	addwfc	fsr2h,f,c
  5495  00027C  50DF               	movf	indf2,w,c
  5496  00027E  0100               	movlb	0	; () banked
  5497  000280  6F9A               	movwf	??_i2c_int_handler& (0+255),b
  5498  000282  EE20 F019          	lfsr	2,25
  5499  000286  505E               	movf	_ic_ptr,w,c
  5500  000288  26D9               	addwf	fsr2l,f,c
  5501  00028A  505F               	movf	_ic_ptr+1,w,c
  5502  00028C  22DA               	addwfc	fsr2h,f,c
  5503  00028E  50DF               	movf	indf2,w,c
  5504  000290  0100               	movlb	0	; () banked
  5505  000292  5D9A               	subwf	??_i2c_int_handler& (0+255),w,b
  5506  000294  B0D8               	btfsc	status,0,c
  5507  000296  D0C4               	goto	L8
  5508                           
  5509                           ; BSR set to: 0
  5510                           ;my_i2c.c: 157: SSPBUF = ic_ptr->outbuffer[ic_ptr->outbufind];
  5511  000298  EE20 F01A          	lfsr	2,26
  5512  00029C  505E               	movf	_ic_ptr,w,c
  5513  00029E  26D9               	addwf	fsr2l,f,c
  5514  0002A0  505F               	movf	_ic_ptr+1,w,c
  5515  0002A2  22DA               	addwfc	fsr2h,f,c
  5516  0002A4  50DF               	movf	indf2,w,c
  5517  0002A6  0100               	movlb	0	; () banked
  5518  0002A8  6F9A               	movwf	??_i2c_int_handler& (0+255),b
  5519  0002AA  0100               	movlb	0	; () banked
  5520  0002AC  519A               	movf	??_i2c_int_handler& (0+255),w,b
  5521  0002AE  0D01               	mullw	1
  5522  0002B0  0E0F               	movlw	15
  5523  0002B2  26F3               	addwf	prodl,f,c
  5524  0002B4  0E00               	movlw	0
  5525  0002B6  22F4               	addwfc	prodh,f,c
  5526  0002B8  50F3               	movf	prodl,w,c
  5527  0002BA  245E               	addwf	_ic_ptr,w,c
  5528  0002BC  6ED9               	movwf	fsr2l,c
  5529  0002BE  50F4               	movf	prodh,w,c
  5530  0002C0  205F               	addwfc	_ic_ptr+1,w,c
  5531  0002C2  6EDA               	movwf	fsr2h,c
  5532  0002C4  50DF               	movf	indf2,w,c
  5533  0002C6  6EC9               	movwf	4041,c	;volatile
  5534                           
  5535                           ; BSR set to: 0
  5536                           ;my_i2c.c: 158: ic_ptr->outbufind++;
  5537  0002C8  EE20 F01A          	lfsr	2,26
  5538  0002CC  505E               	movf	_ic_ptr,w,c
  5539  0002CE  26D9               	addwf	fsr2l,f,c
  5540  0002D0  505F               	movf	_ic_ptr+1,w,c
  5541  0002D2  22DA               	addwfc	fsr2h,f,c
  5542  0002D4  2ADF               	incf	indf2,f,c
  5543                           
  5544                           ; BSR set to: 0
  5545                           ;my_i2c.c: 159: data_written = 1;
  5546  0002D6  0100               	movlb	0	; () banked
  5547  0002D8  6F9A               	movwf	??_i2c_int_handler& (0+255),b
  5548  0002DA  0E01               	movlw	1
  5549  0002DC  0100               	movlb	0	; () banked
  5550  0002DE  0100               	movlb	0	; () banked
  5551  0002E0  6F9F               	movwf	i2c_int_handler@data_written& (0+255),b
  5552  0002E2  D09B               	goto	L6
  5553  0002E4                     L5:
  5554  0002E4  6EDF               	movwf	indf2,c
  5555  0002E6  D0B7               	goto	i2l270
  5556  0002E8                     i2l290:
  5557                           
  5558                           ; BSR set to: 0
  5559                           ;my_i2c.c: 167: {
  5560                           ;my_i2c.c: 169: if (SSPSTATbits.P == 1) {
  5561  0002E8  A8C7               	btfss	4039,4,c	;volatile
  5562  0002EA  D04C               	goto	i2l3015
  5563                           
  5564                           ; BSR set to: 0
  5565                           ;my_i2c.c: 171: ic_ptr->event_count++;
  5566  0002EC  EE20 F00B          	lfsr	2,11
  5567  0002F0  505E               	movf	_ic_ptr,w,c
  5568  0002F2  26D9               	addwf	fsr2l,f,c
  5569  0002F4  505F               	movf	_ic_ptr+1,w,c
  5570  0002F6  22DA               	addwfc	fsr2h,f,c
  5571  0002F8  2ADF               	incf	indf2,f,c
  5572                           
  5573                           ; BSR set to: 0
  5574                           ;my_i2c.c: 172: if (data_read) {
  5575  0002FA  0100               	movlb	0	; () banked
  5576  0002FC  0100               	movlb	0	; () banked
  5577  0002FE  51A4               	movf	i2c_int_handler@data_read& (0+255),w,b
  5578  000300  B4D8               	btfsc	status,2,c
  5579  000302  D037               	goto	i2l3011
  5580                           
  5581                           ; BSR set to: 0
  5582                           ;my_i2c.c: 173: if (SSPSTATbits.D_A == 1) {
  5583  000304  AAC7               	btfss	4039,5,c	;volatile
  5584  000306  D01D               	goto	i2l3009
  5585                           
  5586                           ; BSR set to: 0
  5587                           ;my_i2c.c: 174: ic_ptr->buffer[ic_ptr->buflen] = i2c_data;
  5588  000308  EE20 F00A          	lfsr	2,10
  5589  00030C  505E               	movf	_ic_ptr,w,c
  5590  00030E  26D9               	addwf	fsr2l,f,c
  5591  000310  505F               	movf	_ic_ptr+1,w,c
  5592  000312  22DA               	addwfc	fsr2h,f,c
  5593  000314  50DF               	movf	indf2,w,c
  5594  000316  0100               	movlb	0	; () banked
  5595  000318  6F9A               	movwf	??_i2c_int_handler& (0+255),b
  5596  00031A  0100               	movlb	0	; () banked
  5597  00031C  519A               	movf	??_i2c_int_handler& (0+255),w,b
  5598  00031E  0D01               	mullw	1
  5599  000320  50F3               	movf	prodl,w,c
  5600  000322  245E               	addwf	_ic_ptr,w,c
  5601  000324  6ED9               	movwf	fsr2l,c
  5602  000326  50F4               	movf	prodh,w,c
  5603  000328  205F               	addwfc	_ic_ptr+1,w,c
  5604  00032A  6EDA               	movwf	fsr2h,c
  5605  00032C  0100               	movlb	0	; () banked
  5606  00032E  C0A2  FFDF         	movff	i2c_int_handler@i2c_data,indf2
  5607                           
  5608                           ; BSR set to: 0
  5609                           ;my_i2c.c: 175: ic_ptr->buflen++;
  5610  000332  EE20 F00A          	lfsr	2,10
  5611  000336  505E               	movf	_ic_ptr,w,c
  5612  000338  26D9               	addwf	fsr2l,f,c
  5613  00033A  505F               	movf	_ic_ptr+1,w,c
  5614  00033C  22DA               	addwfc	fsr2h,f,c
  5615  00033E  2ADF               	incf	indf2,f,c
  5616  000340  D018               	goto	i2l3011
  5617  000342                     i2l3009:
  5618                           
  5619                           ; BSR set to: 0
  5620                           ;my_i2c.c: 178: ic_ptr->error_count++;
  5621  000342  EE20 F00E          	lfsr	2,14
  5622  000346  505E               	movf	_ic_ptr,w,c
  5623  000348  26D9               	addwf	fsr2l,f,c
  5624  00034A  505F               	movf	_ic_ptr+1,w,c
  5625  00034C  22DA               	addwfc	fsr2h,f,c
  5626  00034E  2ADF               	incf	indf2,f,c
  5627                           
  5628                           ;my_i2c.c: 179: ic_ptr->error_code = 0x6;
  5629  000350  EE20 F00D          	lfsr	2,13
  5630  000354  505E               	movf	_ic_ptr,w,c
  5631  000356  26D9               	addwf	fsr2l,f,c
  5632  000358  505F               	movf	_ic_ptr+1,w,c
  5633  00035A  22DA               	addwfc	fsr2h,f,c
  5634  00035C  0E06               	movlw	6
  5635  00035E  6EDF               	movwf	indf2,c
  5636                           
  5637                           ;my_i2c.c: 180: ic_ptr->status = 0x5;
  5638  000360  EE20 F00C          	lfsr	2,12
  5639  000364  505E               	movf	_ic_ptr,w,c
  5640  000366  26D9               	addwf	fsr2l,f,c
  5641  000368  505F               	movf	_ic_ptr+1,w,c
  5642  00036A  22DA               	addwfc	fsr2h,f,c
  5643  00036C  0E05               	movlw	5
  5644  00036E  6EDF               	movwf	indf2,c
  5645  000370  D057               	goto	L8
  5646  000372                     i2l3011:
  5647                           
  5648                           ; BSR set to: 0
  5649                           ;my_i2c.c: 183: msg_ready = 1;
  5650  000372  0100               	movlb	0	; () banked
  5651  000374  6F9A               	movwf	??_i2c_int_handler& (0+255),b
  5652  000376  0E01               	movlw	1
  5653  000378  0100               	movlb	0	; () banked
  5654  00037A  0100               	movlb	0	; () banked
  5655  00037C  6FA3               	movwf	i2c_int_handler@msg_ready& (0+255),b
  5656  00037E  0100               	movlb	0	; () banked
  5657  000380  519A               	movf	??_i2c_int_handler& (0+255),w,b
  5658                           
  5659                           ; BSR set to: 0
  5660  000382  D04E               	goto	L8
  5661  000384                     i2l3015:
  5662                           
  5663                           ; BSR set to: 0
  5664  000384  0100               	movlb	0	; () banked
  5665  000386  0100               	movlb	0	; () banked
  5666  000388  51A4               	movf	i2c_int_handler@data_read& (0+255),w,b
  5667  00038A  B4D8               	btfsc	status,2,c
  5668  00038C  D064               	goto	i2l270
  5669                           
  5670                           ; BSR set to: 0
  5671                           ;my_i2c.c: 187: ic_ptr->event_count++;
  5672  00038E  EE20 F00B          	lfsr	2,11
  5673  000392  505E               	movf	_ic_ptr,w,c
  5674  000394  26D9               	addwf	fsr2l,f,c
  5675  000396  505F               	movf	_ic_ptr+1,w,c
  5676  000398  22DA               	addwfc	fsr2h,f,c
  5677  00039A  2ADF               	incf	indf2,f,c
  5678                           
  5679                           ; BSR set to: 0
  5680                           ;my_i2c.c: 188: if (SSPSTATbits.D_A == 1) {
  5681  00039C  AAC7               	btfss	4039,5,c	;volatile
  5682  00039E  D01D               	goto	i2l298
  5683                           
  5684                           ; BSR set to: 0
  5685                           ;my_i2c.c: 189: ic_ptr->buffer[ic_ptr->buflen] = i2c_data;
  5686  0003A0  EE20 F00A          	lfsr	2,10
  5687  0003A4  505E               	movf	_ic_ptr,w,c
  5688  0003A6  26D9               	addwf	fsr2l,f,c
  5689  0003A8  505F               	movf	_ic_ptr+1,w,c
  5690  0003AA  22DA               	addwfc	fsr2h,f,c
  5691  0003AC  50DF               	movf	indf2,w,c
  5692  0003AE  0100               	movlb	0	; () banked
  5693  0003B0  6F9A               	movwf	??_i2c_int_handler& (0+255),b
  5694  0003B2  0100               	movlb	0	; () banked
  5695  0003B4  519A               	movf	??_i2c_int_handler& (0+255),w,b
  5696  0003B6  0D01               	mullw	1
  5697  0003B8  50F3               	movf	prodl,w,c
  5698  0003BA  245E               	addwf	_ic_ptr,w,c
  5699  0003BC  6ED9               	movwf	fsr2l,c
  5700  0003BE  50F4               	movf	prodh,w,c
  5701  0003C0  205F               	addwfc	_ic_ptr+1,w,c
  5702  0003C2  6EDA               	movwf	fsr2h,c
  5703  0003C4  0100               	movlb	0	; () banked
  5704  0003C6  C0A2  FFDF         	movff	i2c_int_handler@i2c_data,indf2
  5705                           
  5706                           ; BSR set to: 0
  5707                           ;my_i2c.c: 190: ic_ptr->buflen++;
  5708  0003CA  EE20 F00A          	lfsr	2,10
  5709  0003CE  505E               	movf	_ic_ptr,w,c
  5710  0003D0  26D9               	addwf	fsr2l,f,c
  5711  0003D2  505F               	movf	_ic_ptr+1,w,c
  5712  0003D4  22DA               	addwfc	fsr2h,f,c
  5713  0003D6  2ADF               	incf	indf2,f,c
  5714                           
  5715                           ;my_i2c.c: 191: } else {
  5716  0003D8  D03E               	goto	i2l270
  5717  0003DA                     i2l298:
  5718                           
  5719                           ; BSR set to: 0
  5720                           ;my_i2c.c: 192: if (SSPSTATbits.R_W == 1) {
  5721  0003DA  A4C7               	btfss	4039,2,c	;volatile
  5722  0003DC  D701               	goto	i2l2967
  5723                           
  5724                           ; BSR set to: 0
  5725                           ;my_i2c.c: 193: ic_ptr->status = 0x8;
  5726  0003DE  EE20 F00C          	lfsr	2,12
  5727  0003E2  505E               	movf	_ic_ptr,w,c
  5728  0003E4  26D9               	addwf	fsr2l,f,c
  5729  0003E6  505F               	movf	_ic_ptr+1,w,c
  5730  0003E8  22DA               	addwfc	fsr2h,f,c
  5731  0003EA  0E08               	movlw	8
  5732  0003EC  6EDF               	movwf	indf2,c
  5733                           
  5734                           ; BSR set to: 0
  5735                           ;my_i2c.c: 194: msg_ready = 1;
  5736  0003EE  0100               	movlb	0	; () banked
  5737  0003F0  6F9A               	movwf	??_i2c_int_handler& (0+255),b
  5738  0003F2  0E01               	movlw	1
  5739  0003F4  0100               	movlb	0	; () banked
  5740  0003F6  0100               	movlb	0	; () banked
  5741  0003F8  6FA3               	movwf	i2c_int_handler@msg_ready& (0+255),b
  5742  0003FA  0100               	movlb	0	; () banked
  5743  0003FC  519A               	movf	??_i2c_int_handler& (0+255),w,b
  5744  0003FE                     L9:
  5745                           
  5746                           ; BSR set to: 0
  5747                           ;my_i2c.c: 195: msg_to_send = 1;
  5748  0003FE  0100               	movlb	0	; () banked
  5749  000400  6F9A               	movwf	??_i2c_int_handler& (0+255),b
  5750  000402  0E01               	movlw	1
  5751  000404  0100               	movlb	0	; () banked
  5752  000406  0100               	movlb	0	; () banked
  5753  000408  6FA1               	movwf	i2c_int_handler@msg_to_send& (0+255),b
  5754  00040A  0100               	movlb	0	; () banked
  5755  00040C  519A               	movf	??_i2c_int_handler& (0+255),w,b
  5756                           
  5757                           ; BSR set to: 0
  5758                           ;my_i2c.c: 197: data_read = 0;
  5759  00040E  0100               	movlb	0	; () banked
  5760  000410  6F9A               	movwf	??_i2c_int_handler& (0+255),b
  5761  000412  0E00               	movlw	0
  5762  000414  0100               	movlb	0	; () banked
  5763  000416  0100               	movlb	0	; () banked
  5764  000418  6FA4               	movwf	i2c_int_handler@data_read& (0+255),b
  5765  00041A                     L6:
  5766  00041A  0100               	movlb	0	; () banked
  5767  00041C  519A               	movf	??_i2c_int_handler& (0+255),w,b
  5768                           
  5769                           ;my_i2c.c: 198: } else {
  5770  00041E  D01B               	goto	i2l270
  5771  000420                     L8:
  5772                           
  5773                           ;my_i2c.c: 201: ic_ptr->status = 0x5;
  5774  000420  EE20 F00C          	lfsr	2,12
  5775  000424  505E               	movf	_ic_ptr,w,c
  5776  000426  26D9               	addwf	fsr2l,f,c
  5777  000428  505F               	movf	_ic_ptr+1,w,c
  5778  00042A  22DA               	addwfc	fsr2h,f,c
  5779  00042C  0E05               	movlw	5
  5780  00042E  D75A               	goto	L5
  5781  000430                     i2l3037:
  5782                           
  5783                           ; BSR set to: 0
  5784  000430  EE20 F00C          	lfsr	2,12
  5785  000434  505E               	movf	_ic_ptr,w,c
  5786  000436  26D9               	addwf	fsr2l,f,c
  5787  000438  505F               	movf	_ic_ptr+1,w,c
  5788  00043A  22DA               	addwfc	fsr2h,f,c
  5789  00043C  50DF               	movf	indf2,w,c
  5790                           
  5791                           ; Switch size 1, requested type "space"
  5792                           ; Number of cases is 4, Range of values is 5 to 8
  5793                           ; switch strategies available:
  5794                           ; Name         Instructions Cycles
  5795                           ; simple_byte           13     7 (average)
  5796                           ;	Chosen strategy is simple_byte
  5797  00043E  0A05               	xorlw	5	; case 5
  5798  000440  B4D8               	btfsc	status,2,c
  5799  000442  D696               	goto	i2l272
  5800  000444  0A03               	xorlw	3	; case 6
  5801  000446  B4D8               	btfsc	status,2,c
  5802  000448  D6B2               	goto	i2l276
  5803  00044A  0A01               	xorlw	1	; case 7
  5804  00044C  B4D8               	btfsc	status,2,c
  5805  00044E  D74C               	goto	i2l290
  5806  000450  0A0F               	xorlw	15	; case 8
  5807  000452  B4D8               	btfsc	status,2,c
  5808  000454  D70D               	goto	i2l2987
  5809  000456                     i2l270:
  5810                           
  5811                           ;my_i2c.c: 208: }
  5812                           ;my_i2c.c: 211: if (data_read || data_written) {
  5813  000456  0100               	movlb	0	; () banked
  5814  000458  0100               	movlb	0	; () banked
  5815  00045A  67A4               	tstfsz	i2c_int_handler@data_read& (0+255),b
  5816  00045C  D005               	goto	i2l304
  5817                           
  5818                           ; BSR set to: 0
  5819  00045E  0100               	movlb	0	; () banked
  5820  000460  0100               	movlb	0	; () banked
  5821  000462  519F               	movf	i2c_int_handler@data_written& (0+255),w,b
  5822  000464  B4D8               	btfsc	status,2,c
  5823  000466  D002               	goto	i2l3043
  5824  000468                     i2l304:
  5825                           
  5826                           ; BSR set to: 0
  5827                           ;my_i2c.c: 213: if (SSPCON1bits.CKP == 0) {
  5828  000468  A8C6               	btfss	4038,4,c	;volatile
  5829                           
  5830                           ; BSR set to: 0
  5831                           ;my_i2c.c: 214: SSPCON1bits.CKP = 1;
  5832  00046A  88C6               	bsf	4038,4,c	;volatile
  5833  00046C                     i2l3043:
  5834                           
  5835                           ; BSR set to: 0
  5836                           ;my_i2c.c: 215: }
  5837                           ;my_i2c.c: 216: }
  5838                           ;my_i2c.c: 219: if ((ic_ptr->buflen > 10 - 2) && (!msg_ready)) {
  5839  00046C  EE20 F00A          	lfsr	2,10
  5840  000470  505E               	movf	_ic_ptr,w,c
  5841  000472  26D9               	addwf	fsr2l,f,c
  5842  000474  505F               	movf	_ic_ptr+1,w,c
  5843  000476  22DA               	addwfc	fsr2h,f,c
  5844  000478  0E08               	movlw	8
  5845  00047A  64DF               	cpfsgt	indf2,c
  5846  00047C  D01B               	goto	i2l3049
  5847                           
  5848                           ; BSR set to: 0
  5849  00047E  0100               	movlb	0	; () banked
  5850  000480  0100               	movlb	0	; () banked
  5851  000482  67A3               	tstfsz	i2c_int_handler@msg_ready& (0+255),b
  5852  000484  D017               	goto	i2l3049
  5853                           
  5854                           ; BSR set to: 0
  5855                           ;my_i2c.c: 220: ic_ptr->status = 0x5;
  5856  000486  EE20 F00C          	lfsr	2,12
  5857  00048A  505E               	movf	_ic_ptr,w,c
  5858  00048C  26D9               	addwf	fsr2l,f,c
  5859  00048E  505F               	movf	_ic_ptr+1,w,c
  5860  000490  22DA               	addwfc	fsr2h,f,c
  5861  000492  0E05               	movlw	5
  5862  000494  6EDF               	movwf	indf2,c
  5863                           
  5864                           ;my_i2c.c: 221: ic_ptr->error_count++;
  5865  000496  EE20 F00E          	lfsr	2,14
  5866  00049A  505E               	movf	_ic_ptr,w,c
  5867  00049C  26D9               	addwf	fsr2l,f,c
  5868  00049E  505F               	movf	_ic_ptr+1,w,c
  5869  0004A0  22DA               	addwfc	fsr2h,f,c
  5870  0004A2  2ADF               	incf	indf2,f,c
  5871                           
  5872                           ;my_i2c.c: 222: ic_ptr->error_code = 0x7;
  5873  0004A4  EE20 F00D          	lfsr	2,13
  5874  0004A8  505E               	movf	_ic_ptr,w,c
  5875  0004AA  26D9               	addwf	fsr2l,f,c
  5876  0004AC  505F               	movf	_ic_ptr+1,w,c
  5877  0004AE  22DA               	addwfc	fsr2h,f,c
  5878  0004B0  0E07               	movlw	7
  5879  0004B2  6EDF               	movwf	indf2,c
  5880  0004B4                     i2l3049:
  5881                           
  5882                           ; BSR set to: 0
  5883                           ;my_i2c.c: 223: }
  5884                           ;my_i2c.c: 225: if (msg_ready) {
  5885  0004B4  0100               	movlb	0	; () banked
  5886  0004B6  0100               	movlb	0	; () banked
  5887  0004B8  51A3               	movf	i2c_int_handler@msg_ready& (0+255),w,b
  5888  0004BA  B4D8               	btfsc	status,2,c
  5889  0004BC  D038               	goto	i2l3057
  5890                           
  5891                           ; BSR set to: 0
  5892                           ;my_i2c.c: 226: ic_ptr->buffer[ic_ptr->buflen] = ic_ptr->event_count;
  5893  0004BE  EE20 F00B          	lfsr	2,11
  5894  0004C2  505E               	movf	_ic_ptr,w,c
  5895  0004C4  26D9               	addwf	fsr2l,f,c
  5896  0004C6  505F               	movf	_ic_ptr+1,w,c
  5897  0004C8  22DA               	addwfc	fsr2h,f,c
  5898  0004CA  EE10 F00A          	lfsr	1,10
  5899  0004CE  505E               	movf	_ic_ptr,w,c
  5900  0004D0  26E1               	addwf	fsr1l,f,c
  5901  0004D2  505F               	movf	_ic_ptr+1,w,c
  5902  0004D4  22E2               	addwfc	fsr1h,f,c
  5903  0004D6  50E7               	movf	indf1,w,c
  5904  0004D8  0100               	movlb	0	; () banked
  5905  0004DA  6F9A               	movwf	??_i2c_int_handler& (0+255),b
  5906  0004DC  0100               	movlb	0	; () banked
  5907  0004DE  519A               	movf	??_i2c_int_handler& (0+255),w,b
  5908  0004E0  0D01               	mullw	1
  5909  0004E2  50F3               	movf	prodl,w,c
  5910  0004E4  245E               	addwf	_ic_ptr,w,c
  5911  0004E6  6EE1               	movwf	fsr1l,c
  5912  0004E8  50F4               	movf	prodh,w,c
  5913  0004EA  205F               	addwfc	_ic_ptr+1,w,c
  5914  0004EC  6EE2               	movwf	fsr1h,c
  5915  0004EE  CFDF FFE7          	movff	indf2,indf1
  5916                           
  5917                           ; BSR set to: 0
  5918                           ;my_i2c.c: 227: ToMainHigh_sendmsg(ic_ptr->buflen + 1, 40, (void *) ic_ptr->buffer);
  5919  0004F2  0100               	movlb	0	; () banked
  5920  0004F4  6F9A               	movwf	??_i2c_int_handler& (0+255),b
  5921  0004F6  0E28               	movlw	40
  5922  0004F8  0100               	movlb	0	; () banked
  5923  0004FA  0100               	movlb	0	; () banked
  5924  0004FC  6F96               	movwf	ToMainHigh_sendmsg@msgtype& (0+255),b
  5925  0004FE  0100               	movlb	0	; () banked
  5926  000500  519A               	movf	??_i2c_int_handler& (0+255),w,b
  5927  000502  0100               	movlb	0	; () banked
  5928  000504  C05F  F098         	movff	_ic_ptr+1,ToMainHigh_sendmsg@data+1
  5929  000508  0100               	movlb	0	; () banked
  5930  00050A  C05E  F097         	movff	_ic_ptr,ToMainHigh_sendmsg@data
  5931  00050E  EE20 F00A          	lfsr	2,10
  5932  000512  505E               	movf	_ic_ptr,w,c
  5933  000514  26D9               	addwf	fsr2l,f,c
  5934  000516  505F               	movf	_ic_ptr+1,w,c
  5935  000518  22DA               	addwfc	fsr2h,f,c
  5936  00051A  50DF               	movf	indf2,w,c
  5937  00051C  0100               	movlb	0	; () banked
  5938  00051E  6F9B               	movwf	(??_i2c_int_handler+1)& (0+255),b
  5939  000520  0100               	movlb	0	; () banked
  5940  000522  299B               	incf	(??_i2c_int_handler+1)& (0+255),w,b
  5941  000524  EC91  F00A         	call	_ToMainHigh_sendmsg
  5942                           
  5943                           ;my_i2c.c: 228: ic_ptr->buflen = 0;
  5944  000528  EE20 F00A          	lfsr	2,10
  5945  00052C  D03E               	goto	L7
  5946  00052E                     i2l3057:
  5947  00052E  EE20 F00E          	lfsr	2,14
  5948  000532  505E               	movf	_ic_ptr,w,c
  5949  000534  26D9               	addwf	fsr2l,f,c
  5950  000536  505F               	movf	_ic_ptr+1,w,c
  5951  000538  22DA               	addwfc	fsr2h,f,c
  5952  00053A  50DF               	movf	indf2,w,c
  5953  00053C  B4D8               	btfsc	status,2,c
  5954  00053E  D03B               	goto	i2l3065
  5955                           
  5956                           ;my_i2c.c: 230: error_buf[0] = ic_ptr->error_count;
  5957  000540  EE20 F00E          	lfsr	2,14
  5958  000544  505E               	movf	_ic_ptr,w,c
  5959  000546  26D9               	addwf	fsr2l,f,c
  5960  000548  505F               	movf	_ic_ptr+1,w,c
  5961  00054A  22DA               	addwfc	fsr2h,f,c
  5962  00054C  50DF               	movf	indf2,w,c
  5963  00054E  0100               	movlb	0	; () banked
  5964  000550  0100               	movlb	0	; () banked
  5965  000552  6F9C               	movwf	i2c_int_handler@error_buf& (0+255),b
  5966                           
  5967                           ;my_i2c.c: 231: error_buf[1] = ic_ptr->error_code;
  5968  000554  EE20 F00D          	lfsr	2,13
  5969  000558  505E               	movf	_ic_ptr,w,c
  5970  00055A  26D9               	addwf	fsr2l,f,c
  5971  00055C  505F               	movf	_ic_ptr+1,w,c
  5972  00055E  22DA               	addwfc	fsr2h,f,c
  5973  000560  50DF               	movf	indf2,w,c
  5974  000562  0100               	movlb	0	; () banked
  5975  000564  0100               	movlb	0	; () banked
  5976  000566  6F9D               	movwf	(i2c_int_handler@error_buf+1)& (0+255),b
  5977                           
  5978                           ;my_i2c.c: 232: error_buf[2] = ic_ptr->event_count;
  5979  000568  EE20 F00B          	lfsr	2,11
  5980  00056C  505E               	movf	_ic_ptr,w,c
  5981  00056E  26D9               	addwf	fsr2l,f,c
  5982  000570  505F               	movf	_ic_ptr+1,w,c
  5983  000572  22DA               	addwfc	fsr2h,f,c
  5984  000574  50DF               	movf	indf2,w,c
  5985  000576  0100               	movlb	0	; () banked
  5986  000578  0100               	movlb	0	; () banked
  5987  00057A  6F9E               	movwf	(i2c_int_handler@error_buf+2)& (0+255),b
  5988                           
  5989                           ; BSR set to: 0
  5990                           ;my_i2c.c: 233: ToMainHigh_sendmsg(sizeof (unsigned char) *3, 41, (void *) error_buf);
  5991  00057C  0100               	movlb	0	; () banked
  5992  00057E  6F9A               	movwf	??_i2c_int_handler& (0+255),b
  5993  000580  0E29               	movlw	41
  5994  000582  0100               	movlb	0	; () banked
  5995  000584  0100               	movlb	0	; () banked
  5996  000586  6F96               	movwf	ToMainHigh_sendmsg@msgtype& (0+255),b
  5997  000588  0100               	movlb	0	; () banked
  5998  00058A  519A               	movf	??_i2c_int_handler& (0+255),w,b
  5999  00058C  0100               	movlb	0	; () banked
  6000  00058E  0E00               	movlw	high i2c_int_handler@error_buf
  6001  000590  0100               	movlb	0	; () banked
  6002  000592  0100               	movlb	0	; () banked
  6003  000594  6F98               	movwf	(ToMainHigh_sendmsg@data+1)& (0+255),b
  6004  000596  0100               	movlb	0	; () banked
  6005  000598  0E9C               	movlw	low i2c_int_handler@error_buf
  6006  00059A  0100               	movlb	0	; () banked
  6007  00059C  0100               	movlb	0	; () banked
  6008  00059E  6F97               	movwf	ToMainHigh_sendmsg@data& (0+255),b
  6009  0005A0  0E03               	movlw	3
  6010  0005A2  EC91  F00A         	call	_ToMainHigh_sendmsg
  6011                           
  6012                           ;my_i2c.c: 234: ic_ptr->error_count = 0;
  6013  0005A6  EE20 F00E          	lfsr	2,14
  6014  0005AA                     L7:
  6015  0005AA  505E               	movf	_ic_ptr,w,c
  6016  0005AC  26D9               	addwf	fsr2l,f,c
  6017  0005AE  505F               	movf	_ic_ptr+1,w,c
  6018  0005B0  22DA               	addwfc	fsr2h,f,c
  6019  0005B2  0E00               	movlw	0
  6020  0005B4  6EDF               	movwf	indf2,c
  6021  0005B6                     i2l3065:
  6022                           
  6023                           ;my_i2c.c: 235: }
  6024                           ;my_i2c.c: 236: if (msg_to_send) {
  6025  0005B6  0100               	movlb	0	; () banked
  6026  0005B8  0100               	movlb	0	; () banked
  6027  0005BA  51A1               	movf	i2c_int_handler@msg_to_send& (0+255),w,b
  6028  0005BC  B4D8               	btfsc	status,2,c
  6029  0005BE  0012               	return	
  6030                           
  6031                           ; BSR set to: 0
  6032                           ;my_i2c.c: 238: readMessages();
  6033  0005C0  EC42  F008         	call	_readMessages	;wreg free
  6034  0005C4  0012               	return	
  6035  0005C6                     __end_of_i2c_int_handler:
  6036                           	opt stack 0
  6037                           pclatu	equ	0xFFB
  6038                           pclath	equ	0xFFA
  6039                           tblptru	equ	0xFF8
  6040                           tblptrh	equ	0xFF7
  6041                           tblptrl	equ	0xFF6
  6042                           tablat	equ	0xFF5
  6043                           prodh	equ	0xFF4
  6044                           prodl	equ	0xFF3
  6045                           intcon	equ	0xFF2
  6046                           postinc0	equ	0xFEE
  6047                           fsr0h	equ	0xFEA
  6048                           fsr0l	equ	0xFE9
  6049                           wreg	equ	0xFE8
  6050                           indf1	equ	0xFE7
  6051                           fsr1h	equ	0xFE2
  6052                           fsr1l	equ	0xFE1
  6053                           bsr	equ	0xFE0
  6054                           indf2	equ	0xFDF
  6055                           postinc2	equ	0xFDE
  6056                           postdec2	equ	0xFDD
  6057                           fsr2h	equ	0xFDA
  6058                           fsr2l	equ	0xFD9
  6059                           status	equ	0xFD8
  6060                           
  6061 ;; *************** function _readMessages *****************
  6062 ;; Defined at:
  6063 ;;		line 312 in file "../src/my_i2c.c"
  6064 ;; Parameters:    Size  Location     Type
  6065 ;;		None
  6066 ;; Auto vars:     Size  Location     Type
  6067 ;;  buf             5    6[BANK0 ] unsigned char [5]
  6068 ;; Return value:  Size  Location     Type
  6069 ;;		None               void
  6070 ;; Registers used:
  6071 ;;		wreg, fsr1l, fsr1h, fsr2l, fsr2h, status,2, status,0, prodl, prodh, cstack
  6072 ;; Tracked objects:
  6073 ;;		On entry : 0/0
  6074 ;;		On exit  : 0/0
  6075 ;;		Unchanged: 0/0
  6076 ;; Data sizes:     COMRAM   BANK0   BANK1   BANK2   BANK3
  6077 ;;      Params:         0       0       0       0       0
  6078 ;;      Locals:         0       5       0       0       0
  6079 ;;      Temps:          0       1       0       0       0
  6080 ;;      Totals:         0       6       0       0       0
  6081 ;;Total ram usage:        6 bytes
  6082 ;; Hardware stack levels used:    1
  6083 ;; Hardware stack levels required when called:    1
  6084 ;; This function calls:
  6085 ;;		_start_i2c_slave_reply
  6086 ;; This function is called by:
  6087 ;;		_i2c_int_handler
  6088 ;; This function uses a non-reentrant model
  6089 ;;
  6090                           
  6091                           	psect	text39
  6092  001084                     __ptext39:
  6093                           	opt stack 0
  6094  001084                     _readMessages:
  6095                           	opt stack 17
  6096                           
  6097                           ;my_i2c.c: 314: unsigned char buf[5];
  6098                           ;my_i2c.c: 315: buf[0] = 0x1;
  6099                           
  6100                           ;incstack = 0
  6101  001084  0100               	movlb	0	; () banked
  6102  001086  6F85               	movwf	??_readMessages& (0+255),b
  6103  001088  0E01               	movlw	1
  6104  00108A  0100               	movlb	0	; () banked
  6105  00108C  0100               	movlb	0	; () banked
  6106  00108E  6F86               	movwf	readMessages@buf& (0+255),b
  6107  001090  0100               	movlb	0	; () banked
  6108  001092  5185               	movf	??_readMessages& (0+255),w,b
  6109                           
  6110                           ;my_i2c.c: 316: buf[1] = 0x2;
  6111  001094  0100               	movlb	0	; () banked
  6112  001096  6F85               	movwf	??_readMessages& (0+255),b
  6113  001098  0E02               	movlw	2
  6114  00109A  0100               	movlb	0	; () banked
  6115  00109C  0100               	movlb	0	; () banked
  6116  00109E  6F87               	movwf	(readMessages@buf+1)& (0+255),b
  6117  0010A0  0100               	movlb	0	; () banked
  6118  0010A2  5185               	movf	??_readMessages& (0+255),w,b
  6119                           
  6120                           ;my_i2c.c: 317: buf[2] = 0x3;
  6121  0010A4  0100               	movlb	0	; () banked
  6122  0010A6  6F85               	movwf	??_readMessages& (0+255),b
  6123  0010A8  0E03               	movlw	3
  6124  0010AA  0100               	movlb	0	; () banked
  6125  0010AC  0100               	movlb	0	; () banked
  6126  0010AE  6F88               	movwf	(readMessages@buf+2)& (0+255),b
  6127  0010B0  0100               	movlb	0	; () banked
  6128  0010B2  5185               	movf	??_readMessages& (0+255),w,b
  6129                           
  6130                           ;my_i2c.c: 318: buf[3] = 0x4;
  6131  0010B4  0100               	movlb	0	; () banked
  6132  0010B6  6F85               	movwf	??_readMessages& (0+255),b
  6133  0010B8  0E04               	movlw	4
  6134  0010BA  0100               	movlb	0	; () banked
  6135  0010BC  0100               	movlb	0	; () banked
  6136  0010BE  6F89               	movwf	(readMessages@buf+3)& (0+255),b
  6137  0010C0  0100               	movlb	0	; () banked
  6138  0010C2  5185               	movf	??_readMessages& (0+255),w,b
  6139                           
  6140                           ;my_i2c.c: 319: buf[4] = 0x5;
  6141  0010C4  0100               	movlb	0	; () banked
  6142  0010C6  6F85               	movwf	??_readMessages& (0+255),b
  6143  0010C8  0E05               	movlw	5
  6144  0010CA  0100               	movlb	0	; () banked
  6145  0010CC  0100               	movlb	0	; () banked
  6146  0010CE  6F8A               	movwf	(readMessages@buf+4)& (0+255),b
  6147  0010D0  0100               	movlb	0	; () banked
  6148  0010D2  5185               	movf	??_readMessages& (0+255),w,b
  6149                           
  6150                           ;my_i2c.c: 321: length = 5;
  6151  0010D4  0100               	movlb	0	; () banked
  6152  0010D6  6F85               	movwf	??_readMessages& (0+255),b
  6153  0010D8  0E05               	movlw	5
  6154  0010DA  6E2D               	movwf	_length,c
  6155  0010DC  0100               	movlb	0	; () banked
  6156  0010DE  5185               	movf	??_readMessages& (0+255),w,b
  6157                           
  6158                           ; BSR set to: 0
  6159                           ;my_i2c.c: 322: start_i2c_slave_reply(length, buf);
  6160  0010E0  0100               	movlb	0	; () banked
  6161  0010E2  0E00               	movlw	high readMessages@buf
  6162  0010E4  0100               	movlb	0	; () banked
  6163  0010E6  0100               	movlb	0	; () banked
  6164  0010E8  6F81               	movwf	(start_i2c_slave_reply@msg+1)& (0+255),b
  6165  0010EA  0100               	movlb	0	; () banked
  6166  0010EC  0E86               	movlw	low readMessages@buf
  6167  0010EE  0100               	movlb	0	; () banked
  6168  0010F0  0100               	movlb	0	; () banked
  6169  0010F2  6F80               	movwf	start_i2c_slave_reply@msg& (0+255),b
  6170  0010F4  502D               	movf	_length,w,c
  6171  0010F6  EC55  F005         	call	_start_i2c_slave_reply
  6172  0010FA  0012               	return	
  6173  0010FC                     __end_of_readMessages:
  6174                           	opt stack 0
  6175                           pclatu	equ	0xFFB
  6176                           pclath	equ	0xFFA
  6177                           tblptru	equ	0xFF8
  6178                           tblptrh	equ	0xFF7
  6179                           tblptrl	equ	0xFF6
  6180                           tablat	equ	0xFF5
  6181                           prodh	equ	0xFF4
  6182                           prodl	equ	0xFF3
  6183                           intcon	equ	0xFF2
  6184                           postinc0	equ	0xFEE
  6185                           fsr0h	equ	0xFEA
  6186                           fsr0l	equ	0xFE9
  6187                           wreg	equ	0xFE8
  6188                           indf1	equ	0xFE7
  6189                           fsr1h	equ	0xFE2
  6190                           fsr1l	equ	0xFE1
  6191                           bsr	equ	0xFE0
  6192                           indf2	equ	0xFDF
  6193                           postinc2	equ	0xFDE
  6194                           postdec2	equ	0xFDD
  6195                           fsr2h	equ	0xFDA
  6196                           fsr2l	equ	0xFD9
  6197                           status	equ	0xFD8
  6198                           
  6199 ;; *************** function _start_i2c_slave_reply *****************
  6200 ;; Defined at:
  6201 ;;		line 31 in file "../src/my_i2c.c"
  6202 ;; Parameters:    Size  Location     Type
  6203 ;;  length          1    wreg     unsigned char 
  6204 ;;  msg             2    0[BANK0 ] PTR unsigned char 
  6205 ;;		 -> readMessages@buf(5), 
  6206 ;; Auto vars:     Size  Location     Type
  6207 ;;  length          1    4[BANK0 ] unsigned char 
  6208 ;; Return value:  Size  Location     Type
  6209 ;;		None               void
  6210 ;; Registers used:
  6211 ;;		wreg, fsr1l, fsr1h, fsr2l, fsr2h, status,2, status,0, prodl, prodh
  6212 ;; Tracked objects:
  6213 ;;		On entry : 0/0
  6214 ;;		On exit  : 0/0
  6215 ;;		Unchanged: 0/0
  6216 ;; Data sizes:     COMRAM   BANK0   BANK1   BANK2   BANK3
  6217 ;;      Params:         0       2       0       0       0
  6218 ;;      Locals:         0       1       0       0       0
  6219 ;;      Temps:          0       2       0       0       0
  6220 ;;      Totals:         0       5       0       0       0
  6221 ;;Total ram usage:        5 bytes
  6222 ;; Hardware stack levels used:    1
  6223 ;; This function calls:
  6224 ;;		Nothing
  6225 ;; This function is called by:
  6226 ;;		_readMessages
  6227 ;; This function uses a non-reentrant model
  6228 ;;
  6229                           
  6230                           	psect	text40
  6231  000AAA                     __ptext40:
  6232                           	opt stack 0
  6233  000AAA                     _start_i2c_slave_reply:
  6234                           	opt stack 17
  6235                           
  6236                           ;incstack = 0
  6237                           ;start_i2c_slave_reply@length stored from wreg
  6238  000AAA  CFE8 F084          	movff	wreg,start_i2c_slave_reply@length
  6239                           
  6240                           ;my_i2c.c: 33: for (ic_ptr->outbuflen = 0; ic_ptr->outbuflen < length; ic_ptr->outbuflen
      +                          ++) {
  6241  000AAE  EE20 F019          	lfsr	2,25
  6242  000AB2  505E               	movf	_ic_ptr,w,c
  6243  000AB4  26D9               	addwf	fsr2l,f,c
  6244  000AB6  505F               	movf	_ic_ptr+1,w,c
  6245  000AB8  22DA               	addwfc	fsr2h,f,c
  6246  000ABA  0E00               	movlw	0
  6247  000ABC  6EDF               	movwf	indf2,c
  6248  000ABE  D035               	goto	i2l3419
  6249  000AC0                     i2l3415:
  6250                           
  6251                           ;my_i2c.c: 34: ic_ptr->outbuffer[ic_ptr->outbuflen] = msg[ic_ptr->outbuflen];
  6252  000AC0  EE20 F019          	lfsr	2,25
  6253  000AC4  505E               	movf	_ic_ptr,w,c
  6254  000AC6  26D9               	addwf	fsr2l,f,c
  6255  000AC8  505F               	movf	_ic_ptr+1,w,c
  6256  000ACA  22DA               	addwfc	fsr2h,f,c
  6257  000ACC  50DF               	movf	indf2,w,c
  6258  000ACE  0100               	movlb	0	; () banked
  6259  000AD0  6F82               	movwf	??_start_i2c_slave_reply& (0+255),b
  6260  000AD2  0100               	movlb	0	; () banked
  6261  000AD4  5182               	movf	??_start_i2c_slave_reply& (0+255),w,b
  6262  000AD6  0D01               	mullw	1
  6263  000AD8  50F3               	movf	prodl,w,c
  6264  000ADA  0100               	movlb	0	; () banked
  6265  000ADC  0100               	movlb	0	; () banked
  6266  000ADE  2580               	addwf	start_i2c_slave_reply@msg& (0+255),w,b
  6267  000AE0  6ED9               	movwf	fsr2l,c
  6268  000AE2  50F4               	movf	prodh,w,c
  6269  000AE4  0100               	movlb	0	; () banked
  6270  000AE6  0100               	movlb	0	; () banked
  6271  000AE8  2181               	addwfc	(start_i2c_slave_reply@msg+1)& (0+255),w,b
  6272  000AEA  6EDA               	movwf	fsr2h,c
  6273  000AEC  EE10 F019          	lfsr	1,25
  6274  000AF0  505E               	movf	_ic_ptr,w,c
  6275  000AF2  26E1               	addwf	fsr1l,f,c
  6276  000AF4  505F               	movf	_ic_ptr+1,w,c
  6277  000AF6  22E2               	addwfc	fsr1h,f,c
  6278  000AF8  50E7               	movf	indf1,w,c
  6279  000AFA  0100               	movlb	0	; () banked
  6280  000AFC  6F83               	movwf	(??_start_i2c_slave_reply+1)& (0+255),b
  6281  000AFE  0100               	movlb	0	; () banked
  6282  000B00  5183               	movf	(??_start_i2c_slave_reply+1)& (0+255),w,b
  6283  000B02  0D01               	mullw	1
  6284  000B04  0E0F               	movlw	15
  6285  000B06  26F3               	addwf	prodl,f,c
  6286  000B08  0E00               	movlw	0
  6287  000B0A  22F4               	addwfc	prodh,f,c
  6288  000B0C  50F3               	movf	prodl,w,c
  6289  000B0E  245E               	addwf	_ic_ptr,w,c
  6290  000B10  6EE1               	movwf	fsr1l,c
  6291  000B12  50F4               	movf	prodh,w,c
  6292  000B14  205F               	addwfc	_ic_ptr+1,w,c
  6293  000B16  6EE2               	movwf	fsr1h,c
  6294  000B18  CFDF FFE7          	movff	indf2,indf1
  6295                           
  6296                           ; BSR set to: 0
  6297  000B1C  EE20 F019          	lfsr	2,25
  6298  000B20  505E               	movf	_ic_ptr,w,c
  6299  000B22  26D9               	addwf	fsr2l,f,c
  6300  000B24  505F               	movf	_ic_ptr+1,w,c
  6301  000B26  22DA               	addwfc	fsr2h,f,c
  6302  000B28  2ADF               	incf	indf2,f,c
  6303  000B2A                     i2l3419:
  6304  000B2A  EE20 F019          	lfsr	2,25
  6305  000B2E  505E               	movf	_ic_ptr,w,c
  6306  000B30  26D9               	addwf	fsr2l,f,c
  6307  000B32  505F               	movf	_ic_ptr+1,w,c
  6308  000B34  22DA               	addwfc	fsr2h,f,c
  6309  000B36  50DF               	movf	indf2,w,c
  6310  000B38  0100               	movlb	0	; () banked
  6311  000B3A  6F82               	movwf	??_start_i2c_slave_reply& (0+255),b
  6312  000B3C  0100               	movlb	0	; () banked
  6313  000B3E  0100               	movlb	0	; () banked
  6314  000B40  5184               	movf	start_i2c_slave_reply@length& (0+255),w,b
  6315  000B42  0100               	movlb	0	; () banked
  6316  000B44  5D82               	subwf	??_start_i2c_slave_reply& (0+255),w,b
  6317  000B46  A0D8               	btfss	status,0,c
  6318  000B48  D7BB               	goto	i2l3415
  6319                           
  6320                           ; BSR set to: 0
  6321                           ;my_i2c.c: 35: }
  6322                           ;my_i2c.c: 36: ic_ptr->outbuflen = length;
  6323                           
  6324                           ; BSR set to: 0
  6325  000B4A  EE20 F019          	lfsr	2,25
  6326  000B4E  505E               	movf	_ic_ptr,w,c
  6327  000B50  26D9               	addwf	fsr2l,f,c
  6328  000B52  505F               	movf	_ic_ptr+1,w,c
  6329  000B54  22DA               	addwfc	fsr2h,f,c
  6330  000B56  0100               	movlb	0	; () banked
  6331  000B58  C084  FFDF         	movff	start_i2c_slave_reply@length,indf2
  6332                           
  6333                           ;my_i2c.c: 37: ic_ptr->outbufind = 1;
  6334  000B5C  EE20 F01A          	lfsr	2,26
  6335  000B60  505E               	movf	_ic_ptr,w,c
  6336  000B62  26D9               	addwf	fsr2l,f,c
  6337  000B64  505F               	movf	_ic_ptr+1,w,c
  6338  000B66  22DA               	addwfc	fsr2h,f,c
  6339  000B68  0E01               	movlw	1
  6340  000B6A  6EDF               	movwf	indf2,c
  6341                           
  6342                           ;my_i2c.c: 40: SSPBUF = ic_ptr->outbuffer[0];
  6343  000B6C  EE20 F00F          	lfsr	2,15
  6344  000B70  505E               	movf	_ic_ptr,w,c
  6345  000B72  26D9               	addwf	fsr2l,f,c
  6346  000B74  505F               	movf	_ic_ptr+1,w,c
  6347  000B76  22DA               	addwfc	fsr2h,f,c
  6348  000B78  50DF               	movf	indf2,w,c
  6349  000B7A  6EC9               	movwf	4041,c	;volatile
  6350                           
  6351                           ; BSR set to: 0
  6352                           ;my_i2c.c: 43: SSPCON1bits.CKP = 1;
  6353  000B7C  88C6               	bsf	4038,4,c	;volatile
  6354                           
  6355                           ; BSR set to: 0
  6356  000B7E  0012               	return	
  6357  000B80                     __end_of_start_i2c_slave_reply:
  6358                           	opt stack 0
  6359                           pclatu	equ	0xFFB
  6360                           pclath	equ	0xFFA
  6361                           tblptru	equ	0xFF8
  6362                           tblptrh	equ	0xFF7
  6363                           tblptrl	equ	0xFF6
  6364                           tablat	equ	0xFF5
  6365                           prodh	equ	0xFF4
  6366                           prodl	equ	0xFF3
  6367                           intcon	equ	0xFF2
  6368                           postinc0	equ	0xFEE
  6369                           fsr0h	equ	0xFEA
  6370                           fsr0l	equ	0xFE9
  6371                           wreg	equ	0xFE8
  6372                           indf1	equ	0xFE7
  6373                           fsr1h	equ	0xFE2
  6374                           fsr1l	equ	0xFE1
  6375                           bsr	equ	0xFE0
  6376                           indf2	equ	0xFDF
  6377                           postinc2	equ	0xFDE
  6378                           postdec2	equ	0xFDD
  6379                           fsr2h	equ	0xFDA
  6380                           fsr2l	equ	0xFD9
  6381                           status	equ	0xFD8
  6382                           
  6383 ;; *************** function _handle_start *****************
  6384 ;; Defined at:
  6385 ;;		line 49 in file "../src/my_i2c.c"
  6386 ;; Parameters:    Size  Location     Type
  6387 ;;  data_read       1    wreg     unsigned char 
  6388 ;; Auto vars:     Size  Location     Type
  6389 ;;  data_read       1    0[BANK0 ] unsigned char 
  6390 ;; Return value:  Size  Location     Type
  6391 ;;		None               void
  6392 ;; Registers used:
  6393 ;;		wreg, fsr2l, fsr2h, status,2, status,0
  6394 ;; Tracked objects:
  6395 ;;		On entry : 0/0
  6396 ;;		On exit  : 0/0
  6397 ;;		Unchanged: 0/0
  6398 ;; Data sizes:     COMRAM   BANK0   BANK1   BANK2   BANK3
  6399 ;;      Params:         0       0       0       0       0
  6400 ;;      Locals:         0       1       0       0       0
  6401 ;;      Temps:          0       0       0       0       0
  6402 ;;      Totals:         0       1       0       0       0
  6403 ;;Total ram usage:        1 bytes
  6404 ;; Hardware stack levels used:    1
  6405 ;; This function calls:
  6406 ;;		Nothing
  6407 ;; This function is called by:
  6408 ;;		_i2c_int_handler
  6409 ;; This function uses a non-reentrant model
  6410 ;;
  6411                           
  6412                           	psect	text41
  6413  000CC6                     __ptext41:
  6414                           	opt stack 0
  6415  000CC6                     _handle_start:
  6416                           	opt stack 18
  6417                           
  6418                           ; BSR set to: 0
  6419                           ;incstack = 0
  6420                           ;handle_start@data_read stored from wreg
  6421  000CC6  CFE8 F080          	movff	wreg,handle_start@data_read
  6422                           
  6423                           ;my_i2c.c: 50: ic_ptr->event_count = 1;
  6424  000CCA  EE20 F00B          	lfsr	2,11
  6425  000CCE  505E               	movf	_ic_ptr,w,c
  6426  000CD0  26D9               	addwf	fsr2l,f,c
  6427  000CD2  505F               	movf	_ic_ptr+1,w,c
  6428  000CD4  22DA               	addwfc	fsr2h,f,c
  6429  000CD6  0E01               	movlw	1
  6430  000CD8  6EDF               	movwf	indf2,c
  6431                           
  6432                           ;my_i2c.c: 51: ic_ptr->buflen = 0;
  6433  000CDA  EE20 F00A          	lfsr	2,10
  6434  000CDE  505E               	movf	_ic_ptr,w,c
  6435  000CE0  26D9               	addwf	fsr2l,f,c
  6436  000CE2  505F               	movf	_ic_ptr+1,w,c
  6437  000CE4  22DA               	addwfc	fsr2h,f,c
  6438  000CE6  0E00               	movlw	0
  6439  000CE8  6EDF               	movwf	indf2,c
  6440                           
  6441                           ;my_i2c.c: 53: if (data_read) {
  6442  000CEA  0100               	movlb	0	; () banked
  6443  000CEC  0100               	movlb	0	; () banked
  6444  000CEE  5180               	movf	handle_start@data_read& (0+255),w,b
  6445  000CF0  B4D8               	btfsc	status,2,c
  6446  000CF2  D02E               	goto	i2l3437
  6447                           
  6448                           ; BSR set to: 0
  6449                           ;my_i2c.c: 54: if (SSPSTATbits.D_A == 1) {
  6450  000CF4  AAC7               	btfss	4039,5,c	;volatile
  6451  000CF6  D018               	goto	i2l260
  6452                           
  6453                           ; BSR set to: 0
  6454                           ;my_i2c.c: 57: ic_ptr->status = 0x5;
  6455  000CF8  EE20 F00C          	lfsr	2,12
  6456  000CFC  505E               	movf	_ic_ptr,w,c
  6457  000CFE  26D9               	addwf	fsr2l,f,c
  6458  000D00  505F               	movf	_ic_ptr+1,w,c
  6459  000D02  22DA               	addwfc	fsr2h,f,c
  6460  000D04  0E05               	movlw	5
  6461  000D06  6EDF               	movwf	indf2,c
  6462                           
  6463                           ;my_i2c.c: 58: ic_ptr->error_count++;
  6464  000D08  EE20 F00E          	lfsr	2,14
  6465  000D0C  505E               	movf	_ic_ptr,w,c
  6466  000D0E  26D9               	addwf	fsr2l,f,c
  6467  000D10  505F               	movf	_ic_ptr+1,w,c
  6468  000D12  22DA               	addwfc	fsr2h,f,c
  6469  000D14  2ADF               	incf	indf2,f,c
  6470                           
  6471                           ;my_i2c.c: 59: ic_ptr->error_code = 0x5;
  6472  000D16  EE20 F00D          	lfsr	2,13
  6473  000D1A  505E               	movf	_ic_ptr,w,c
  6474  000D1C  26D9               	addwf	fsr2l,f,c
  6475  000D1E  505F               	movf	_ic_ptr+1,w,c
  6476  000D20  22DA               	addwfc	fsr2h,f,c
  6477  000D22  0E05               	movlw	5
  6478  000D24  6EDF               	movwf	indf2,c
  6479                           
  6480                           ;my_i2c.c: 60: } else {
  6481  000D26  0012               	return	
  6482  000D28                     i2l260:
  6483                           
  6484                           ; BSR set to: 0
  6485                           ;my_i2c.c: 61: if (SSPSTATbits.R_W == 1) {
  6486  000D28  A4C7               	btfss	4039,2,c	;volatile
  6487  000D2A  D009               	goto	i2l3435
  6488                           
  6489                           ; BSR set to: 0
  6490                           ;my_i2c.c: 62: ic_ptr->status = 0x8;
  6491  000D2C  EE20 F00C          	lfsr	2,12
  6492  000D30  505E               	movf	_ic_ptr,w,c
  6493  000D32  26D9               	addwf	fsr2l,f,c
  6494  000D34  505F               	movf	_ic_ptr+1,w,c
  6495  000D36  22DA               	addwfc	fsr2h,f,c
  6496  000D38  0E08               	movlw	8
  6497  000D3A  6EDF               	movwf	indf2,c
  6498                           
  6499                           ;my_i2c.c: 63: } else {
  6500  000D3C  0012               	return	
  6501  000D3E                     i2l3435:
  6502                           
  6503                           ; BSR set to: 0
  6504                           ;my_i2c.c: 64: ic_ptr->status = 0x7;
  6505  000D3E  EE20 F00C          	lfsr	2,12
  6506  000D42  505E               	movf	_ic_ptr,w,c
  6507  000D44  26D9               	addwf	fsr2l,f,c
  6508  000D46  505F               	movf	_ic_ptr+1,w,c
  6509  000D48  22DA               	addwfc	fsr2h,f,c
  6510  000D4A  0E07               	movlw	7
  6511  000D4C  6EDF               	movwf	indf2,c
  6512  000D4E  0012               	return	
  6513  000D50                     i2l3437:
  6514                           
  6515                           ; BSR set to: 0
  6516                           ;my_i2c.c: 68: ic_ptr->status = 0x6;
  6517  000D50  EE20 F00C          	lfsr	2,12
  6518  000D54  505E               	movf	_ic_ptr,w,c
  6519  000D56  26D9               	addwf	fsr2l,f,c
  6520  000D58  505F               	movf	_ic_ptr+1,w,c
  6521  000D5A  22DA               	addwfc	fsr2h,f,c
  6522  000D5C  0E06               	movlw	6
  6523  000D5E  6EDF               	movwf	indf2,c
  6524  000D60  0012               	return	
  6525  000D62                     __end_of_handle_start:
  6526                           	opt stack 0
  6527                           pclatu	equ	0xFFB
  6528                           pclath	equ	0xFFA
  6529                           tblptru	equ	0xFF8
  6530                           tblptrh	equ	0xFF7
  6531                           tblptrl	equ	0xFF6
  6532                           tablat	equ	0xFF5
  6533                           prodh	equ	0xFF4
  6534                           prodl	equ	0xFF3
  6535                           intcon	equ	0xFF2
  6536                           postinc0	equ	0xFEE
  6537                           fsr0h	equ	0xFEA
  6538                           fsr0l	equ	0xFE9
  6539                           wreg	equ	0xFE8
  6540                           indf1	equ	0xFE7
  6541                           fsr1h	equ	0xFE2
  6542                           fsr1l	equ	0xFE1
  6543                           bsr	equ	0xFE0
  6544                           indf2	equ	0xFDF
  6545                           postinc2	equ	0xFDE
  6546                           postdec2	equ	0xFDD
  6547                           fsr2h	equ	0xFDA
  6548                           fsr2l	equ	0xFD9
  6549                           status	equ	0xFD8
  6550                           
  6551 ;; *************** function _ToMainHigh_sendmsg *****************
  6552 ;; Defined at:
  6553 ;;		line 126 in file "../src/messages.c"
  6554 ;; Parameters:    Size  Location     Type
  6555 ;;  length          1    wreg     unsigned char 
  6556 ;;  msgtype         1   22[BANK0 ] unsigned char 
  6557 ;;  data            2   23[BANK0 ] PTR void 
  6558 ;;		 -> timer0_int_handler@val(2), NULL(0), i2c_int_handler@error_buf(3), main@ic(28), 
  6559 ;; Auto vars:     Size  Location     Type
  6560 ;;  length          1   25[BANK0 ] unsigned char 
  6561 ;; Return value:  Size  Location     Type
  6562 ;;                  1    wreg      char 
  6563 ;; Registers used:
  6564 ;;		wreg, fsr1l, fsr1h, fsr2l, fsr2h, status,2, status,0, prodl, prodh, cstack
  6565 ;; Tracked objects:
  6566 ;;		On entry : 0/0
  6567 ;;		On exit  : 0/0
  6568 ;;		Unchanged: 0/0
  6569 ;; Data sizes:     COMRAM   BANK0   BANK1   BANK2   BANK3
  6570 ;;      Params:         0       3       0       0       0
  6571 ;;      Locals:         0       1       0       0       0
  6572 ;;      Temps:          0       0       0       0       0
  6573 ;;      Totals:         0       4       0       0       0
  6574 ;;Total ram usage:        4 bytes
  6575 ;; Hardware stack levels used:    1
  6576 ;; Hardware stack levels required when called:    2
  6577 ;; This function calls:
  6578 ;;		i2_send_msg
  6579 ;; This function is called by:
  6580 ;;		_i2c_int_handler
  6581 ;;		_timer0_int_handler
  6582 ;; This function uses a non-reentrant model
  6583 ;;
  6584                           
  6585                           	psect	text42
  6586  001522                     __ptext42:
  6587                           	opt stack 0
  6588  001522                     _ToMainHigh_sendmsg:
  6589                           	opt stack 16
  6590                           
  6591                           ; BSR set to: 0
  6592                           ;incstack = 0
  6593                           ;ToMainHigh_sendmsg@length stored from wreg
  6594  001522  CFE8 F099          	movff	wreg,ToMainHigh_sendmsg@length
  6595                           
  6596                           ;messages.c: 132: return (send_msg(&ToMainHigh_MQ, length, msgtype, data));
  6597                           ;	Return value of _ToMainHigh_sendmsg is never used
  6598  001526  0101               	movlb	1	; () banked
  6599  001528  0E01               	movlw	high _ToMainHigh_MQ
  6600  00152A  0100               	movlb	0	; () banked
  6601  00152C  0100               	movlb	0	; () banked
  6602  00152E  6F8B               	movwf	(i2send_msg@qptr+1)& (0+255),b
  6603  001530  0101               	movlb	1	; () banked
  6604  001532  0E6C               	movlw	low _ToMainHigh_MQ
  6605  001534  0100               	movlb	0	; () banked
  6606  001536  0100               	movlb	0	; () banked
  6607  001538  6F8A               	movwf	i2send_msg@qptr& (0+255),b
  6608  00153A  C099  F08C         	movff	ToMainHigh_sendmsg@length,i2send_msg@length
  6609  00153E  C096  F08D         	movff	ToMainHigh_sendmsg@msgtype,i2send_msg@msgtype
  6610  001542  0100               	movlb	0	; () banked
  6611  001544  0100               	movlb	0	; () banked
  6612  001546  C098  F08F         	movff	ToMainHigh_sendmsg@data+1,i2send_msg@data+1
  6613  00154A  0100               	movlb	0	; () banked
  6614  00154C  0100               	movlb	0	; () banked
  6615  00154E  C097  F08E         	movff	ToMainHigh_sendmsg@data,i2send_msg@data
  6616  001552  ECD3  F004         	call	i2_send_msg	;wreg free
  6617  001556  0012               	return	
  6618  001558                     __end_of_ToMainHigh_sendmsg:
  6619                           	opt stack 0
  6620                           pclatu	equ	0xFFB
  6621                           pclath	equ	0xFFA
  6622                           tblptru	equ	0xFF8
  6623                           tblptrh	equ	0xFF7
  6624                           tblptrl	equ	0xFF6
  6625                           tablat	equ	0xFF5
  6626                           prodh	equ	0xFF4
  6627                           prodl	equ	0xFF3
  6628                           intcon	equ	0xFF2
  6629                           postinc0	equ	0xFEE
  6630                           fsr0h	equ	0xFEA
  6631                           fsr0l	equ	0xFE9
  6632                           wreg	equ	0xFE8
  6633                           indf1	equ	0xFE7
  6634                           fsr1h	equ	0xFE2
  6635                           fsr1l	equ	0xFE1
  6636                           bsr	equ	0xFE0
  6637                           indf2	equ	0xFDF
  6638                           postinc2	equ	0xFDE
  6639                           postdec2	equ	0xFDD
  6640                           fsr2h	equ	0xFDA
  6641                           fsr2l	equ	0xFD9
  6642                           status	equ	0xFD8
  6643                           
  6644 ;; *************** function i2_send_msg *****************
  6645 ;; Defined at:
  6646 ;;		line 24 in file "../src/messages.c"
  6647 ;; Parameters:    Size  Location     Type
  6648 ;;  qptr            2   10[BANK0 ] PTR struct __msg_queue
  6649 ;;		 -> FromMainHigh_MQ(54), FromMainLow_MQ(54), ToMainHigh_MQ(54), ToMainLow_MQ(54), 
  6650 ;;  length          1   12[BANK0 ] unsigned char 
  6651 ;;  msgtype         1   13[BANK0 ] unsigned char 
  6652 ;;  data            2   14[BANK0 ] PTR void 
  6653 ;;		 -> timer0_int_handler@val(2), NULL(0), i2c_int_handler@error_buf(3), main@ic(28), 
  6654 ;;		 -> main@uc(5), 
  6655 ;; Auto vars:     Size  Location     Type
  6656 ;;  send_msg        2   20[BANK0 ] PTR struct __msg
  6657 ;;		 -> FromMainLow_MQ.queue(52), FromMainHigh_MQ.queue(52), ToMainHigh_MQ.queue(52), ToMainLow_MQ.queue(52), 
  6658 ;;		 -> FromMainHigh_MQ(54), FromMainLow_MQ(54), ToMainHigh_MQ(54), ToMainLow_MQ(54), 
  6659 ;;  send_msg        2   17[BANK0 ] unsigned int 
  6660 ;;  send_msg        1   19[BANK0 ] unsigned char 
  6661 ;; Return value:  Size  Location     Type
  6662 ;;                  1    wreg      char 
  6663 ;; Registers used:
  6664 ;;		wreg, fsr1l, fsr1h, fsr2l, fsr2h, status,2, status,0, prodl, prodh, cstack
  6665 ;; Tracked objects:
  6666 ;;		On entry : 0/0
  6667 ;;		On exit  : 0/0
  6668 ;;		Unchanged: 0/0
  6669 ;; Data sizes:     COMRAM   BANK0   BANK1   BANK2   BANK3
  6670 ;;      Params:         0       6       0       0       0
  6671 ;;      Locals:         0       5       0       0       0
  6672 ;;      Temps:          0       1       0       0       0
  6673 ;;      Totals:         0      12       0       0       0
  6674 ;;Total ram usage:       12 bytes
  6675 ;; Hardware stack levels used:    1
  6676 ;; Hardware stack levels required when called:    1
  6677 ;; This function calls:
  6678 ;;		i2_memcpy
  6679 ;; This function is called by:
  6680 ;;		_ToMainHigh_sendmsg
  6681 ;; This function uses a non-reentrant model
  6682 ;;
  6683                           
  6684                           	psect	text43
  6685  0009A6                     __ptext43:
  6686                           	opt stack 0
  6687  0009A6                     i2_send_msg:
  6688                           	opt stack 16
  6689                           
  6690                           ;messages.c: 25: unsigned char slot;
  6691                           ;messages.c: 27: msg *qmsg;
  6692                           ;messages.c: 28: size_t tlength = length;
  6693                           
  6694                           ;incstack = 0
  6695  0009A6  0100               	movlb	0	; () banked
  6696  0009A8  0100               	movlb	0	; () banked
  6697  0009AA  C08C  F091         	movff	i2send_msg@length,i2send_msg@tlength
  6698  0009AE  0100               	movlb	0	; () banked
  6699  0009B0  0100               	movlb	0	; () banked
  6700  0009B2  6B92               	clrf	(i2send_msg@tlength+1)& (0+255),b
  6701                           
  6702                           ; BSR set to: 0
  6703                           ;messages.c: 38: slot = qptr->cur_write_ind;
  6704  0009B4  0100               	movlb	0	; () banked
  6705  0009B6  EE20 F034          	lfsr	2,52
  6706  0009BA  0100               	movlb	0	; () banked
  6707  0009BC  518A               	movf	i2send_msg@qptr& (0+255),w,b
  6708  0009BE  26D9               	addwf	fsr2l,f,c
  6709  0009C0  0100               	movlb	0	; () banked
  6710  0009C2  518B               	movf	(i2send_msg@qptr+1)& (0+255),w,b
  6711  0009C4  22DA               	addwfc	fsr2h,f,c
  6712  0009C6  50DF               	movf	indf2,w,c
  6713  0009C8  0100               	movlb	0	; () banked
  6714  0009CA  0100               	movlb	0	; () banked
  6715  0009CC  6F93               	movwf	i2send_msg@slot& (0+255),b
  6716                           
  6717                           ; BSR set to: 0
  6718                           ;messages.c: 39: qmsg = &(qptr->queue[slot]);
  6719  0009CE  0100               	movlb	0	; () banked
  6720  0009D0  0100               	movlb	0	; () banked
  6721  0009D2  5193               	movf	i2send_msg@slot& (0+255),w,b
  6722  0009D4  0D0D               	mullw	13
  6723  0009D6  50F3               	movf	prodl,w,c
  6724  0009D8  0100               	movlb	0	; () banked
  6725  0009DA  0100               	movlb	0	; () banked
  6726  0009DC  258A               	addwf	i2send_msg@qptr& (0+255),w,b
  6727  0009DE  0100               	movlb	0	; () banked
  6728  0009E0  0100               	movlb	0	; () banked
  6729  0009E2  6F94               	movwf	i2send_msg@qmsg& (0+255),b
  6730  0009E4  50F4               	movf	prodh,w,c
  6731  0009E6  0100               	movlb	0	; () banked
  6732  0009E8  0100               	movlb	0	; () banked
  6733  0009EA  218B               	addwfc	(i2send_msg@qptr+1)& (0+255),w,b
  6734  0009EC  0100               	movlb	0	; () banked
  6735  0009EE  6F95               	movwf	(i2send_msg@qmsg+1)& (0+255),b
  6736                           
  6737                           ; BSR set to: 0
  6738                           ;messages.c: 41: if (qmsg->full != 0) {
  6739  0009F0  C094  FFD9         	movff	i2send_msg@qmsg,fsr2l
  6740  0009F4  C095  FFDA         	movff	i2send_msg@qmsg+1,fsr2h
  6741  0009F8  50DF               	movf	indf2,w,c
  6742  0009FA  B4D8               	btfsc	status,2,c
  6743  0009FC  D002               	goto	i2l3505
  6744                           
  6745                           ; BSR set to: 0
  6746                           ;messages.c: 42: return (-1);
  6747  0009FE  0EFF               	movlw	255
  6748  000A00  0012               	return	
  6749  000A02                     i2l3505:
  6750                           
  6751                           ; BSR set to: 0
  6752                           ;messages.c: 43: }
  6753                           ;messages.c: 46: qmsg->length = length;
  6754  000A02  0100               	movlb	0	; () banked
  6755  000A04  EE20 F001          	lfsr	2,1
  6756  000A08  0100               	movlb	0	; () banked
  6757  000A0A  5194               	movf	i2send_msg@qmsg& (0+255),w,b
  6758  000A0C  26D9               	addwf	fsr2l,f,c
  6759  000A0E  0100               	movlb	0	; () banked
  6760  000A10  5195               	movf	(i2send_msg@qmsg+1)& (0+255),w,b
  6761  000A12  22DA               	addwfc	fsr2h,f,c
  6762  000A14  0100               	movlb	0	; () banked
  6763  000A16  C08C  FFDF         	movff	i2send_msg@length,indf2
  6764                           
  6765                           ;messages.c: 47: qmsg->msgtype = msgtype;
  6766  000A1A  0100               	movlb	0	; () banked
  6767  000A1C  EE20 F002          	lfsr	2,2
  6768  000A20  0100               	movlb	0	; () banked
  6769  000A22  5194               	movf	i2send_msg@qmsg& (0+255),w,b
  6770  000A24  26D9               	addwf	fsr2l,f,c
  6771  000A26  0100               	movlb	0	; () banked
  6772  000A28  5195               	movf	(i2send_msg@qmsg+1)& (0+255),w,b
  6773  000A2A  22DA               	addwfc	fsr2h,f,c
  6774  000A2C  0100               	movlb	0	; () banked
  6775  000A2E  C08D  FFDF         	movff	i2send_msg@msgtype,indf2
  6776                           
  6777                           ; BSR set to: 0
  6778                           ;messages.c: 55: memcpy(qmsg->data, data, tlength);
  6779  000A32  0E03               	movlw	3
  6780  000A34  0100               	movlb	0	; () banked
  6781  000A36  0100               	movlb	0	; () banked
  6782  000A38  2594               	addwf	i2send_msg@qmsg& (0+255),w,b
  6783  000A3A  0100               	movlb	0	; () banked
  6784  000A3C  0100               	movlb	0	; () banked
  6785  000A3E  6F80               	movwf	i2memcpy@d1& (0+255),b
  6786  000A40  0E00               	movlw	0
  6787  000A42  0100               	movlb	0	; () banked
  6788  000A44  0100               	movlb	0	; () banked
  6789  000A46  2195               	addwfc	(i2send_msg@qmsg+1)& (0+255),w,b
  6790  000A48  0100               	movlb	0	; () banked
  6791  000A4A  6F81               	movwf	(i2memcpy@d1+1)& (0+255),b
  6792  000A4C  0100               	movlb	0	; () banked
  6793  000A4E  0100               	movlb	0	; () banked
  6794  000A50  C08F  F083         	movff	i2send_msg@data+1,i2memcpy@s1+1
  6795  000A54  0100               	movlb	0	; () banked
  6796  000A56  0100               	movlb	0	; () banked
  6797  000A58  C08E  F082         	movff	i2send_msg@data,i2memcpy@s1
  6798  000A5C  C091  F084         	movff	i2send_msg@tlength,i2memcpy@n
  6799  000A60  C092  F085         	movff	i2send_msg@tlength+1,i2memcpy@n+1
  6800  000A64  EC19  F009         	call	i2_memcpy	;wreg free
  6801                           
  6802                           ;messages.c: 56: qptr->cur_write_ind = (qptr->cur_write_ind + 1) % 4;
  6803  000A68  0100               	movlb	0	; () banked
  6804  000A6A  EE20 F034          	lfsr	2,52
  6805  000A6E  0100               	movlb	0	; () banked
  6806  000A70  518A               	movf	i2send_msg@qptr& (0+255),w,b
  6807  000A72  26D9               	addwf	fsr2l,f,c
  6808  000A74  0100               	movlb	0	; () banked
  6809  000A76  518B               	movf	(i2send_msg@qptr+1)& (0+255),w,b
  6810  000A78  22DA               	addwfc	fsr2h,f,c
  6811  000A7A  0100               	movlb	0	; () banked
  6812  000A7C  EE10 F034          	lfsr	1,52
  6813  000A80  0100               	movlb	0	; () banked
  6814  000A82  518A               	movf	i2send_msg@qptr& (0+255),w,b
  6815  000A84  26E1               	addwf	fsr1l,f,c
  6816  000A86  0100               	movlb	0	; () banked
  6817  000A88  518B               	movf	(i2send_msg@qptr+1)& (0+255),w,b
  6818  000A8A  22E2               	addwfc	fsr1h,f,c
  6819  000A8C  50E7               	movf	indf1,w,c
  6820  000A8E  0100               	movlb	0	; () banked
  6821  000A90  6F90               	movwf	??i2_send_msg& (0+255),b
  6822  000A92  0100               	movlb	0	; () banked
  6823  000A94  2990               	incf	??i2_send_msg& (0+255),w,b
  6824  000A96  0B03               	andlw	3
  6825  000A98  6EDF               	movwf	indf2,c
  6826                           
  6827                           ; BSR set to: 0
  6828                           ;messages.c: 59: qmsg->full = 1;
  6829  000A9A  C094  FFD9         	movff	i2send_msg@qmsg,fsr2l
  6830  000A9E  C095  FFDA         	movff	i2send_msg@qmsg+1,fsr2h
  6831  000AA2  0E01               	movlw	1
  6832  000AA4  6EDF               	movwf	indf2,c
  6833                           
  6834                           ; BSR set to: 0
  6835                           ;messages.c: 60: return (1);
  6836  000AA6  0E01               	movlw	1
  6837  000AA8  0012               	return	
  6838  000AAA                     __end_ofi2_send_msg:
  6839                           	opt stack 0
  6840                           pclatu	equ	0xFFB
  6841                           pclath	equ	0xFFA
  6842                           tblptru	equ	0xFF8
  6843                           tblptrh	equ	0xFF7
  6844                           tblptrl	equ	0xFF6
  6845                           tablat	equ	0xFF5
  6846                           prodh	equ	0xFF4
  6847                           prodl	equ	0xFF3
  6848                           intcon	equ	0xFF2
  6849                           postinc0	equ	0xFEE
  6850                           fsr0h	equ	0xFEA
  6851                           fsr0l	equ	0xFE9
  6852                           wreg	equ	0xFE8
  6853                           indf1	equ	0xFE7
  6854                           fsr1h	equ	0xFE2
  6855                           fsr1l	equ	0xFE1
  6856                           bsr	equ	0xFE0
  6857                           indf2	equ	0xFDF
  6858                           postinc2	equ	0xFDE
  6859                           postdec2	equ	0xFDD
  6860                           fsr2h	equ	0xFDA
  6861                           fsr2l	equ	0xFD9
  6862                           status	equ	0xFD8
  6863                           
  6864 ;; *************** function i2_memcpy *****************
  6865 ;; Defined at:
  6866 ;;		line 11 in file "C:\Program Files\Microchip\xc8\v1.30\sources\common\memcpy.c"
  6867 ;; Parameters:    Size  Location     Type
  6868 ;;  d1              2    0[BANK0 ] PTR void 
  6869 ;;		 -> FromMainLow_MQ.queue(52), FromMainHigh_MQ.queue(52), ToMainHigh_MQ.queue(52), ToMainLow_MQ.queue(52), 
  6870 ;;		 -> timer0_int_handler@val(2), FromMainHigh_MQ(54), FromMainLow_MQ(54), ToMainHigh_MQ(54), 
  6871 ;;		 -> ToMainLow_MQ(54), main@msgbuffer(11), 
  6872 ;;  s1              2    2[BANK0 ] PTR const void 
  6873 ;;		 -> ToMainLow_MQ.data(10), ToMainHigh_MQ.data(10), FromMainLow_MQ.data(10), FromMainHigh_MQ.data(10), 
  6874 ;;		 -> ToMainLow_MQ.queue.data(10), ToMainHigh_MQ.queue.data(10), FromMainHigh_MQ.queue.data(10), FromMainLow_MQ.queue.
      +data(10), 
  6875 ;;		 -> timer0_int_handler@val(2), NULL(0), i2c_int_handler@error_buf(3), FromMainHigh_MQ(54), 
  6876 ;;		 -> FromMainLow_MQ(54), ToMainHigh_MQ(54), ToMainLow_MQ(54), main@ic(28), 
  6877 ;;		 -> main@uc(5), 
  6878 ;;  n               2    4[BANK0 ] unsigned int 
  6879 ;; Auto vars:     Size  Location     Type
  6880 ;;  memcpy          2    8[BANK0 ] PTR const unsigned char 
  6881 ;;		 -> ToMainLow_MQ.data(10), ToMainHigh_MQ.data(10), FromMainLow_MQ.data(10), FromMainHigh_MQ.data(10), 
  6882 ;;		 -> ToMainLow_MQ.queue.data(10), ToMainHigh_MQ.queue.data(10), FromMainHigh_MQ.queue.data(10), FromMainLow_MQ.queue.
      +data(10), 
  6883 ;;		 -> timer0_int_handler@val(2), NULL(0), i2c_int_handler@error_buf(3), FromMainHigh_MQ(54), 
  6884 ;;		 -> FromMainLow_MQ(54), ToMainHigh_MQ(54), ToMainLow_MQ(54), main@ic(28), 
  6885 ;;		 -> main@uc(5), 
  6886 ;;  memcpy          2    6[BANK0 ] PTR unsigned char 
  6887 ;;		 -> FromMainLow_MQ.queue(52), FromMainHigh_MQ.queue(52), ToMainHigh_MQ.queue(52), ToMainLow_MQ.queue(52), 
  6888 ;;		 -> timer0_int_handler@val(2), FromMainHigh_MQ(54), FromMainLow_MQ(54), ToMainHigh_MQ(54), 
  6889 ;;		 -> ToMainLow_MQ(54), main@msgbuffer(11), 
  6890 ;; Return value:  Size  Location     Type
  6891 ;;                  2    0[BANK0 ] PTR void 
  6892 ;; Registers used:
  6893 ;;		wreg, fsr1l, fsr1h, fsr2l, fsr2h, status,2, status,0
  6894 ;; Tracked objects:
  6895 ;;		On entry : 0/0
  6896 ;;		On exit  : 0/0
  6897 ;;		Unchanged: 0/0
  6898 ;; Data sizes:     COMRAM   BANK0   BANK1   BANK2   BANK3
  6899 ;;      Params:         0       6       0       0       0
  6900 ;;      Locals:         0       4       0       0       0
  6901 ;;      Temps:          0       0       0       0       0
  6902 ;;      Totals:         0      10       0       0       0
  6903 ;;Total ram usage:       10 bytes
  6904 ;; Hardware stack levels used:    1
  6905 ;; This function calls:
  6906 ;;		Nothing
  6907 ;; This function is called by:
  6908 ;;		i2_send_msg
  6909 ;;		i2_recv_msg
  6910 ;; This function uses a non-reentrant model
  6911 ;;
  6912                           
  6913                           	psect	text44
  6914  001232                     __ptext44:
  6915                           	opt stack 0
  6916  001232                     i2_memcpy:
  6917                           	opt stack 16
  6918                           
  6919                           ; BSR set to: 0
  6920                           ;incstack = 0
  6921  001232  0100               	movlb	0	; () banked
  6922  001234  0100               	movlb	0	; () banked
  6923  001236  C083  F089         	movff	i2memcpy@s1+1,i2memcpy@s+1
  6924  00123A  0100               	movlb	0	; () banked
  6925  00123C  0100               	movlb	0	; () banked
  6926  00123E  C082  F088         	movff	i2memcpy@s1,i2memcpy@s
  6927  001242  0100               	movlb	0	; () banked
  6928  001244  0100               	movlb	0	; () banked
  6929  001246  C081  F087         	movff	i2memcpy@d1+1,i2memcpy@d+1
  6930  00124A  0100               	movlb	0	; () banked
  6931  00124C  0100               	movlb	0	; () banked
  6932  00124E  C080  F086         	movff	i2memcpy@d1,i2memcpy@d
  6933  001252  D012               	goto	i2l3571
  6934  001254                     i2l3565:
  6935                           
  6936                           ; BSR set to: 0
  6937  001254  C088  FFD9         	movff	i2memcpy@s,fsr2l
  6938  001258  C089  FFDA         	movff	i2memcpy@s+1,fsr2h
  6939  00125C  C086  FFE1         	movff	i2memcpy@d,fsr1l
  6940  001260  C087  FFE2         	movff	i2memcpy@d+1,fsr1h
  6941  001264  CFDF FFE7          	movff	indf2,indf1
  6942                           
  6943                           ; BSR set to: 0
  6944  001268  0100               	movlb	0	; () banked
  6945  00126A  0100               	movlb	0	; () banked
  6946  00126C  4B88               	infsnz	i2memcpy@s& (0+255),f,b
  6947  00126E  2B89               	incf	(i2memcpy@s+1)& (0+255),f,b
  6948                           
  6949                           ; BSR set to: 0
  6950  001270  0100               	movlb	0	; () banked
  6951  001272  0100               	movlb	0	; () banked
  6952  001274  4B86               	infsnz	i2memcpy@d& (0+255),f,b
  6953  001276  2B87               	incf	(i2memcpy@d+1)& (0+255),f,b
  6954  001278                     i2l3571:
  6955                           
  6956                           ; BSR set to: 0
  6957  001278  0100               	movlb	0	; () banked
  6958  00127A  0100               	movlb	0	; () banked
  6959  00127C  0784               	decf	i2memcpy@n& (0+255),f,b
  6960  00127E  A0D8               	btfss	status,0,c
  6961  001280  0785               	decf	(i2memcpy@n+1)& (0+255),f,b
  6962  001282  0100               	movlb	0	; () banked
  6963  001284  2984               	incf	i2memcpy@n& (0+255),w,b
  6964  001286  B4D8               	btfsc	status,2,c
  6965  001288  2985               	incf	(i2memcpy@n+1)& (0+255),w,b
  6966  00128A  B4D8               	btfsc	status,2,c
  6967                           
  6968                           ; BSR set to: 0
  6969                           
  6970                           ; BSR set to: 0
  6971                           ;	Return value of i2_memcpy is never used
  6972  00128C  0012               	return	
  6973  00128E  D7E2               	goto	i2l3565
  6974  001290                     __end_ofi2_memcpy:
  6975                           	opt stack 0
  6976                           pclatu	equ	0xFFB
  6977                           pclath	equ	0xFFA
  6978                           tblptru	equ	0xFF8
  6979                           tblptrh	equ	0xFF7
  6980                           tblptrl	equ	0xFF6
  6981                           tablat	equ	0xFF5
  6982                           prodh	equ	0xFF4
  6983                           prodl	equ	0xFF3
  6984                           intcon	equ	0xFF2
  6985                           postinc0	equ	0xFEE
  6986                           fsr0h	equ	0xFEA
  6987                           fsr0l	equ	0xFE9
  6988                           wreg	equ	0xFE8
  6989                           indf1	equ	0xFE7
  6990                           fsr1h	equ	0xFE2
  6991                           fsr1l	equ	0xFE1
  6992                           bsr	equ	0xFE0
  6993                           indf2	equ	0xFDF
  6994                           postinc2	equ	0xFDE
  6995                           postdec2	equ	0xFDD
  6996                           fsr2h	equ	0xFDA
  6997                           fsr2l	equ	0xFD9
  6998                           status	equ	0xFD8
  6999                           
  7000 ;; *************** function _SleepIfOkay *****************
  7001 ;; Defined at:
  7002 ;;		line 228 in file "../src/messages.c"
  7003 ;; Parameters:    Size  Location     Type
  7004 ;;		None
  7005 ;; Auto vars:     Size  Location     Type
  7006 ;;		None
  7007 ;; Return value:  Size  Location     Type
  7008 ;;		None               void
  7009 ;; Registers used:
  7010 ;;		wreg, fsr2l, fsr2h, status,2, status,0, prodl, prodh, cstack
  7011 ;; Tracked objects:
  7012 ;;		On entry : 0/0
  7013 ;;		On exit  : 0/0
  7014 ;;		Unchanged: 0/0
  7015 ;; Data sizes:     COMRAM   BANK0   BANK1   BANK2   BANK3
  7016 ;;      Params:         0       0       0       0       0
  7017 ;;      Locals:         0       0       0       0       0
  7018 ;;      Temps:          0       0       0       0       0
  7019 ;;      Totals:         0       0       0       0       0
  7020 ;;Total ram usage:        0 bytes
  7021 ;; Hardware stack levels used:    1
  7022 ;; Hardware stack levels required when called:    2
  7023 ;; This function calls:
  7024 ;;		_enter_sleep_mode
  7025 ;;		i2_check_msg
  7026 ;;		i2_in_high_int
  7027 ;;		i2_in_low_int
  7028 ;; This function is called by:
  7029 ;;		_InterruptHandlerHigh
  7030 ;; This function uses a non-reentrant model
  7031 ;;
  7032                           
  7033                           	psect	text45
  7034  00116A                     __ptext45:
  7035                           	opt stack 0
  7036  00116A                     _SleepIfOkay:
  7037                           	opt stack 17
  7038                           
  7039                           ;messages.c: 230: if (MQ_Main_Willing_to_block == 0) {
  7040                           
  7041                           ; BSR set to: 0
  7042                           ;incstack = 0
  7043  00116A  662A               	tstfsz	_MQ_Main_Willing_to_block,c
  7044  00116C  D001               	goto	i2l3085
  7045  00116E  0012               	return	
  7046  001170                     i2l3085:
  7047                           
  7048                           ;messages.c: 232: }
  7049                           ;messages.c: 235: if (in_low_int()) {
  7050  001170  EC92  F009         	call	i2_in_low_int	;wreg free
  7051  001174  0100               	movlb	0	; () banked
  7052  001176  0100               	movlb	0	; () banked
  7053  001178  5183               	movf	(?i2_in_low_int+1)& (0+255),w,b
  7054  00117A  0100               	movlb	0	; () banked
  7055  00117C  1182               	iorwf	?i2_in_low_int& (0+255),w,b
  7056  00117E  A4D8               	btfss	status,2,c
  7057  001180  0012               	return	
  7058                           
  7059                           ; BSR set to: 0
  7060                           ;messages.c: 237: }
  7061                           ;messages.c: 240: if (!in_high_int()) {
  7062                           
  7063                           ; BSR set to: 0
  7064                           
  7065                           ; BSR set to: 0
  7066                           ;messages.c: 236: return;
  7067  001182  EC98  F00B         	call	i2_in_high_int	;wreg free
  7068  001186  0100               	movlb	0	; () banked
  7069  001188  0100               	movlb	0	; () banked
  7070  00118A  5181               	movf	(?i2_in_high_int+1)& (0+255),w,b
  7071  00118C  0100               	movlb	0	; () banked
  7072  00118E  1180               	iorwf	?i2_in_high_int& (0+255),w,b
  7073  001190  B4D8               	btfsc	status,2,c
  7074  001192  0012               	return	
  7075                           
  7076                           ; BSR set to: 0
  7077                           ;messages.c: 242: }
  7078                           ;messages.c: 247: if (check_msg(&ToMainHigh_MQ)) {
  7079                           
  7080                           ; BSR set to: 0
  7081                           
  7082                           ; BSR set to: 0
  7083                           ;messages.c: 241: return;
  7084  001194  0101               	movlb	1	; () banked
  7085  001196  0E01               	movlw	high _ToMainHigh_MQ
  7086  001198  0100               	movlb	0	; () banked
  7087  00119A  0100               	movlb	0	; () banked
  7088  00119C  6F81               	movwf	(i2check_msg@qptr+1)& (0+255),b
  7089  00119E  0101               	movlb	1	; () banked
  7090  0011A0  0E6C               	movlw	low _ToMainHigh_MQ
  7091  0011A2  0100               	movlb	0	; () banked
  7092  0011A4  0100               	movlb	0	; () banked
  7093  0011A6  6F80               	movwf	i2check_msg@qptr& (0+255),b
  7094  0011A8  ECAC  F00A         	call	i2_check_msg	;wreg free
  7095  0011AC  0900               	iorlw	0
  7096  0011AE  A4D8               	btfss	status,2,c
  7097  0011B0  0012               	return	
  7098                           
  7099                           ;messages.c: 249: }
  7100                           ;messages.c: 250: if (check_msg(&ToMainLow_MQ)) {
  7101                           
  7102                           ;messages.c: 248: return;
  7103  0011B2  0101               	movlb	1	; () banked
  7104  0011B4  0E01               	movlw	high _ToMainLow_MQ
  7105  0011B6  0100               	movlb	0	; () banked
  7106  0011B8  0100               	movlb	0	; () banked
  7107  0011BA  6F81               	movwf	(i2check_msg@qptr+1)& (0+255),b
  7108  0011BC  0101               	movlb	1	; () banked
  7109  0011BE  0EA2               	movlw	low _ToMainLow_MQ
  7110  0011C0  0100               	movlb	0	; () banked
  7111  0011C2  0100               	movlb	0	; () banked
  7112  0011C4  6F80               	movwf	i2check_msg@qptr& (0+255),b
  7113  0011C6  ECAC  F00A         	call	i2_check_msg	;wreg free
  7114  0011CA  0900               	iorlw	0
  7115  0011CC  B4D8               	btfsc	status,2,c
  7116                           
  7117                           ;messages.c: 252: }
  7118                           ;messages.c: 253: enter_sleep_mode();
  7119                           
  7120                           ;messages.c: 251: return;
  7121  0011CE  ECAB  F00B         	call	_enter_sleep_mode	;wreg free
  7122  0011D2  0012               	return	
  7123  0011D4                     __end_of_SleepIfOkay:
  7124                           	opt stack 0
  7125                           pclatu	equ	0xFFB
  7126                           pclath	equ	0xFFA
  7127                           tblptru	equ	0xFF8
  7128                           tblptrh	equ	0xFF7
  7129                           tblptrl	equ	0xFF6
  7130                           tablat	equ	0xFF5
  7131                           prodh	equ	0xFF4
  7132                           prodl	equ	0xFF3
  7133                           intcon	equ	0xFF2
  7134                           postinc0	equ	0xFEE
  7135                           fsr0h	equ	0xFEA
  7136                           fsr0l	equ	0xFE9
  7137                           wreg	equ	0xFE8
  7138                           indf1	equ	0xFE7
  7139                           fsr1h	equ	0xFE2
  7140                           fsr1l	equ	0xFE1
  7141                           bsr	equ	0xFE0
  7142                           indf2	equ	0xFDF
  7143                           postinc2	equ	0xFDE
  7144                           postdec2	equ	0xFDD
  7145                           fsr2h	equ	0xFDA
  7146                           fsr2l	equ	0xFD9
  7147                           status	equ	0xFD8
  7148                           
  7149 ;; *************** function i2_in_low_int *****************
  7150 ;; Defined at:
  7151 ;;		line 32 in file "../src/interrupts.c"
  7152 ;; Parameters:    Size  Location     Type
  7153 ;;		None
  7154 ;; Auto vars:     Size  Location     Type
  7155 ;;		None
  7156 ;; Return value:  Size  Location     Type
  7157 ;;                  2    2[BANK0 ] int 
  7158 ;; Registers used:
  7159 ;;		wreg, status,2, status,0, cstack
  7160 ;; Tracked objects:
  7161 ;;		On entry : 0/0
  7162 ;;		On exit  : 0/0
  7163 ;;		Unchanged: 0/0
  7164 ;; Data sizes:     COMRAM   BANK0   BANK1   BANK2   BANK3
  7165 ;;      Params:         0       2       0       0       0
  7166 ;;      Locals:         0       0       0       0       0
  7167 ;;      Temps:          0       0       0       0       0
  7168 ;;      Totals:         0       2       0       0       0
  7169 ;;Total ram usage:        2 bytes
  7170 ;; Hardware stack levels used:    1
  7171 ;; Hardware stack levels required when called:    1
  7172 ;; This function calls:
  7173 ;;		i2_in_high_int
  7174 ;; This function is called by:
  7175 ;;		_SleepIfOkay
  7176 ;; This function uses a non-reentrant model
  7177 ;;
  7178                           
  7179                           	psect	text46
  7180  001324                     __ptext46:
  7181                           	opt stack 0
  7182  001324                     i2_in_low_int:
  7183                           	opt stack 17
  7184                           
  7185                           ;interrupts.c: 34: if (INTCONbits.GIEL == 1) {
  7186                           
  7187                           ;incstack = 0
  7188  001324  ACF2               	btfss	intcon,6,c	;volatile
  7189  001326  D008               	goto	i2l3481
  7190                           
  7191                           ;interrupts.c: 35: return (0);
  7192  001328  0E00               	movlw	0
  7193  00132A  0100               	movlb	0	; () banked
  7194  00132C  0100               	movlb	0	; () banked
  7195  00132E  6F83               	movwf	(?i2_in_low_int+1)& (0+255),b
  7196  001330  0E00               	movlw	0
  7197  001332  0100               	movlb	0	; () banked
  7198  001334  6F82               	movwf	?i2_in_low_int& (0+255),b
  7199  001336  0012               	return	
  7200  001338                     i2l3481:
  7201  001338  EC98  F00B         	call	i2_in_high_int	;wreg free
  7202  00133C  0100               	movlb	0	; () banked
  7203  00133E  0100               	movlb	0	; () banked
  7204  001340  5181               	movf	(?i2_in_high_int+1)& (0+255),w,b
  7205  001342  0100               	movlb	0	; () banked
  7206  001344  1180               	iorwf	?i2_in_high_int& (0+255),w,b
  7207  001346  B4D8               	btfsc	status,2,c
  7208  001348  D008               	goto	i2l3489
  7209                           
  7210                           ; BSR set to: 0
  7211                           ;interrupts.c: 37: return (0);
  7212  00134A  0E00               	movlw	0
  7213  00134C  0100               	movlb	0	; () banked
  7214  00134E  0100               	movlb	0	; () banked
  7215  001350  6F83               	movwf	(?i2_in_low_int+1)& (0+255),b
  7216  001352  0E00               	movlw	0
  7217  001354  0100               	movlb	0	; () banked
  7218  001356  6F82               	movwf	?i2_in_low_int& (0+255),b
  7219  001358  0012               	return	
  7220  00135A                     i2l3489:
  7221                           
  7222                           ; BSR set to: 0
  7223                           ;interrupts.c: 39: return (1);
  7224  00135A  0E00               	movlw	0
  7225  00135C  0100               	movlb	0	; () banked
  7226  00135E  0100               	movlb	0	; () banked
  7227  001360  6F83               	movwf	(?i2_in_low_int+1)& (0+255),b
  7228  001362  0E01               	movlw	1
  7229  001364  0100               	movlb	0	; () banked
  7230  001366  6F82               	movwf	?i2_in_low_int& (0+255),b
  7231  001368  0012               	return	
  7232  00136A                     __end_ofi2_in_low_int:
  7233                           	opt stack 0
  7234                           pclatu	equ	0xFFB
  7235                           pclath	equ	0xFFA
  7236                           tblptru	equ	0xFF8
  7237                           tblptrh	equ	0xFF7
  7238                           tblptrl	equ	0xFF6
  7239                           tablat	equ	0xFF5
  7240                           prodh	equ	0xFF4
  7241                           prodl	equ	0xFF3
  7242                           intcon	equ	0xFF2
  7243                           postinc0	equ	0xFEE
  7244                           fsr0h	equ	0xFEA
  7245                           fsr0l	equ	0xFE9
  7246                           wreg	equ	0xFE8
  7247                           indf1	equ	0xFE7
  7248                           fsr1h	equ	0xFE2
  7249                           fsr1l	equ	0xFE1
  7250                           bsr	equ	0xFE0
  7251                           indf2	equ	0xFDF
  7252                           postinc2	equ	0xFDE
  7253                           postdec2	equ	0xFDD
  7254                           fsr2h	equ	0xFDA
  7255                           fsr2l	equ	0xFD9
  7256                           status	equ	0xFD8
  7257                           
  7258 ;; *************** function i2_in_high_int *****************
  7259 ;; Defined at:
  7260 ;;		line 23 in file "../src/interrupts.c"
  7261 ;; Parameters:    Size  Location     Type
  7262 ;;		None
  7263 ;; Auto vars:     Size  Location     Type
  7264 ;;		None
  7265 ;; Return value:  Size  Location     Type
  7266 ;;                  2    0[BANK0 ] int 
  7267 ;; Registers used:
  7268 ;;		wreg, status,2
  7269 ;; Tracked objects:
  7270 ;;		On entry : 0/0
  7271 ;;		On exit  : 0/0
  7272 ;;		Unchanged: 0/0
  7273 ;; Data sizes:     COMRAM   BANK0   BANK1   BANK2   BANK3
  7274 ;;      Params:         0       2       0       0       0
  7275 ;;      Locals:         0       0       0       0       0
  7276 ;;      Temps:          0       0       0       0       0
  7277 ;;      Totals:         0       2       0       0       0
  7278 ;;Total ram usage:        2 bytes
  7279 ;; Hardware stack levels used:    1
  7280 ;; This function calls:
  7281 ;;		Nothing
  7282 ;; This function is called by:
  7283 ;;		_SleepIfOkay
  7284 ;;		i2_in_low_int
  7285 ;; This function uses a non-reentrant model
  7286 ;;
  7287                           
  7288                           	psect	text47
  7289  001730                     __ptext47:
  7290                           	opt stack 0
  7291  001730                     i2_in_high_int:
  7292                           	opt stack 17
  7293                           
  7294                           ;interrupts.c: 25: return (!INTCONbits.GIEH);
  7295                           
  7296                           ; BSR set to: 0
  7297                           ;incstack = 0
  7298  001730  0E00               	movlw	0
  7299  001732  AEF2               	btfss	intcon,7,c	;volatile
  7300  001734  0E01               	movlw	1
  7301  001736  0100               	movlb	0	; () banked
  7302  001738  0100               	movlb	0	; () banked
  7303  00173A  6F80               	movwf	?i2_in_high_int& (0+255),b
  7304  00173C  0100               	movlb	0	; () banked
  7305  00173E  6B81               	clrf	(?i2_in_high_int+1)& (0+255),b
  7306  001740  0012               	return	
  7307  001742                     __end_ofi2_in_high_int:
  7308                           	opt stack 0
  7309                           pclatu	equ	0xFFB
  7310                           pclath	equ	0xFFA
  7311                           tblptru	equ	0xFF8
  7312                           tblptrh	equ	0xFF7
  7313                           tblptrl	equ	0xFF6
  7314                           tablat	equ	0xFF5
  7315                           prodh	equ	0xFF4
  7316                           prodl	equ	0xFF3
  7317                           intcon	equ	0xFF2
  7318                           postinc0	equ	0xFEE
  7319                           fsr0h	equ	0xFEA
  7320                           fsr0l	equ	0xFE9
  7321                           wreg	equ	0xFE8
  7322                           indf1	equ	0xFE7
  7323                           fsr1h	equ	0xFE2
  7324                           fsr1l	equ	0xFE1
  7325                           bsr	equ	0xFE0
  7326                           indf2	equ	0xFDF
  7327                           postinc2	equ	0xFDE
  7328                           postdec2	equ	0xFDD
  7329                           fsr2h	equ	0xFDA
  7330                           fsr2l	equ	0xFD9
  7331                           status	equ	0xFD8
  7332                           
  7333 ;; *************** function i2_check_msg *****************
  7334 ;; Defined at:
  7335 ;;		line 222 in file "../src/messages.c"
  7336 ;; Parameters:    Size  Location     Type
  7337 ;;  qptr            2    0[BANK0 ] PTR struct __msg_queue
  7338 ;;		 -> ToMainHigh_MQ(54), ToMainLow_MQ(54), 
  7339 ;; Auto vars:     Size  Location     Type
  7340 ;;		None
  7341 ;; Return value:  Size  Location     Type
  7342 ;;                  1    wreg      unsigned char 
  7343 ;; Registers used:
  7344 ;;		wreg, fsr2l, fsr2h, status,2, status,0, prodl, prodh
  7345 ;; Tracked objects:
  7346 ;;		On entry : 0/0
  7347 ;;		On exit  : 0/0
  7348 ;;		Unchanged: 0/0
  7349 ;; Data sizes:     COMRAM   BANK0   BANK1   BANK2   BANK3
  7350 ;;      Params:         0       2       0       0       0
  7351 ;;      Locals:         0       0       0       0       0
  7352 ;;      Temps:          0       1       0       0       0
  7353 ;;      Totals:         0       3       0       0       0
  7354 ;;Total ram usage:        3 bytes
  7355 ;; Hardware stack levels used:    1
  7356 ;; This function calls:
  7357 ;;		Nothing
  7358 ;; This function is called by:
  7359 ;;		_SleepIfOkay
  7360 ;; This function uses a non-reentrant model
  7361 ;;
  7362                           
  7363                           	psect	text48
  7364  001558                     __ptext48:
  7365                           	opt stack 0
  7366  001558                     i2_check_msg:
  7367                           	opt stack 18
  7368                           
  7369                           ;messages.c: 223: return (qptr->queue[qptr->cur_read_ind].full);
  7370                           
  7371                           ; BSR set to: 0
  7372                           ;incstack = 0
  7373  001558  0100               	movlb	0	; () banked
  7374  00155A  EE20 F035          	lfsr	2,53
  7375  00155E  0100               	movlb	0	; () banked
  7376  001560  5180               	movf	i2check_msg@qptr& (0+255),w,b
  7377  001562  26D9               	addwf	fsr2l,f,c
  7378  001564  0100               	movlb	0	; () banked
  7379  001566  5181               	movf	(i2check_msg@qptr+1)& (0+255),w,b
  7380  001568  22DA               	addwfc	fsr2h,f,c
  7381  00156A  50DF               	movf	indf2,w,c
  7382  00156C  0100               	movlb	0	; () banked
  7383  00156E  6F82               	movwf	??i2_check_msg& (0+255),b
  7384  001570  0100               	movlb	0	; () banked
  7385  001572  5182               	movf	??i2_check_msg& (0+255),w,b
  7386  001574  0D0D               	mullw	13
  7387  001576  50F3               	movf	prodl,w,c
  7388  001578  0100               	movlb	0	; () banked
  7389  00157A  0100               	movlb	0	; () banked
  7390  00157C  2580               	addwf	i2check_msg@qptr& (0+255),w,b
  7391  00157E  6ED9               	movwf	fsr2l,c
  7392  001580  50F4               	movf	prodh,w,c
  7393  001582  0100               	movlb	0	; () banked
  7394  001584  0100               	movlb	0	; () banked
  7395  001586  2181               	addwfc	(i2check_msg@qptr+1)& (0+255),w,b
  7396  001588  6EDA               	movwf	fsr2h,c
  7397  00158A  50DF               	movf	indf2,w,c
  7398  00158C  0012               	return	
  7399  00158E                     __end_ofi2_check_msg:
  7400                           	opt stack 0
  7401                           pclatu	equ	0xFFB
  7402                           pclath	equ	0xFFA
  7403                           tblptru	equ	0xFF8
  7404                           tblptrh	equ	0xFF7
  7405                           tblptrl	equ	0xFF6
  7406                           tablat	equ	0xFF5
  7407                           prodh	equ	0xFF4
  7408                           prodl	equ	0xFF3
  7409                           intcon	equ	0xFF2
  7410                           postinc0	equ	0xFEE
  7411                           fsr0h	equ	0xFEA
  7412                           fsr0l	equ	0xFE9
  7413                           wreg	equ	0xFE8
  7414                           indf1	equ	0xFE7
  7415                           fsr1h	equ	0xFE2
  7416                           fsr1l	equ	0xFE1
  7417                           bsr	equ	0xFE0
  7418                           indf2	equ	0xFDF
  7419                           postinc2	equ	0xFDE
  7420                           postdec2	equ	0xFDD
  7421                           fsr2h	equ	0xFDA
  7422                           fsr2l	equ	0xFD9
  7423                           status	equ	0xFD8
  7424                           
  7425 ;; *************** function _enter_sleep_mode *****************
  7426 ;; Defined at:
  7427 ;;		line 202 in file "../src/messages.c"
  7428 ;; Parameters:    Size  Location     Type
  7429 ;;		None
  7430 ;; Auto vars:     Size  Location     Type
  7431 ;;		None
  7432 ;; Return value:  Size  Location     Type
  7433 ;;		None               void
  7434 ;; Registers used:
  7435 ;;		None
  7436 ;; Tracked objects:
  7437 ;;		On entry : 0/0
  7438 ;;		On exit  : 0/0
  7439 ;;		Unchanged: 0/0
  7440 ;; Data sizes:     COMRAM   BANK0   BANK1   BANK2   BANK3
  7441 ;;      Params:         0       0       0       0       0
  7442 ;;      Locals:         0       0       0       0       0
  7443 ;;      Temps:          0       0       0       0       0
  7444 ;;      Totals:         0       0       0       0       0
  7445 ;;Total ram usage:        0 bytes
  7446 ;; Hardware stack levels used:    1
  7447 ;; This function calls:
  7448 ;;		Nothing
  7449 ;; This function is called by:
  7450 ;;		_SleepIfOkay
  7451 ;; This function uses a non-reentrant model
  7452 ;;
  7453                           
  7454                           	psect	text49
  7455  001756                     __ptext49:
  7456                           	opt stack 0
  7457  001756                     _enter_sleep_mode:
  7458                           	opt stack 18
  7459                           
  7460                           ;messages.c: 204: OSCCONbits.IDLEN = 1;
  7461                           
  7462                           ; BSR set to: 0
  7463                           ;incstack = 0
  7464  001756  8ED3               	bsf	4051,7,c	;volatile
  7465  001758  0003               	sleep		;# 
  7466  00175A  0012               	return	
  7467  00175C                     __end_of_enter_sleep_mode:
  7468                           	opt stack 0
  7469  0000                     pclatu	equ	0xFFB
  7470                           pclath	equ	0xFFA
  7471                           tblptru	equ	0xFF8
  7472                           tblptrh	equ	0xFF7
  7473                           tblptrl	equ	0xFF6
  7474                           tablat	equ	0xFF5
  7475                           prodh	equ	0xFF4
  7476                           prodl	equ	0xFF3
  7477                           intcon	equ	0xFF2
  7478                           postinc0	equ	0xFEE
  7479                           fsr0h	equ	0xFEA
  7480                           fsr0l	equ	0xFE9
  7481                           wreg	equ	0xFE8
  7482                           indf1	equ	0xFE7
  7483                           fsr1h	equ	0xFE2
  7484                           fsr1l	equ	0xFE1
  7485                           bsr	equ	0xFE0
  7486                           indf2	equ	0xFDF
  7487                           postinc2	equ	0xFDE
  7488                           postdec2	equ	0xFDD
  7489                           fsr2h	equ	0xFDA
  7490                           fsr2l	equ	0xFD9
  7491                           status	equ	0xFD8
  7492                           pclatu	equ	0xFFB
  7493                           pclath	equ	0xFFA
  7494                           tblptru	equ	0xFF8
  7495                           tblptrh	equ	0xFF7
  7496                           tblptrl	equ	0xFF6
  7497                           tablat	equ	0xFF5
  7498                           prodh	equ	0xFF4
  7499                           prodl	equ	0xFF3
  7500                           intcon	equ	0xFF2
  7501                           postinc0	equ	0xFEE
  7502                           fsr0h	equ	0xFEA
  7503                           fsr0l	equ	0xFE9
  7504                           wreg	equ	0xFE8
  7505                           indf1	equ	0xFE7
  7506                           fsr1h	equ	0xFE2
  7507                           fsr1l	equ	0xFE1
  7508                           bsr	equ	0xFE0
  7509                           indf2	equ	0xFDF
  7510                           postinc2	equ	0xFDE
  7511                           postdec2	equ	0xFDD
  7512                           fsr2h	equ	0xFDA
  7513                           fsr2l	equ	0xFD9
  7514                           status	equ	0xFD8
  7515                           
  7516                           	psect	param0
  7517  0000                     pclatu	equ	0xFFB
  7518                           pclath	equ	0xFFA
  7519                           tblptru	equ	0xFF8
  7520                           tblptrh	equ	0xFF7
  7521                           tblptrl	equ	0xFF6
  7522                           tablat	equ	0xFF5
  7523                           prodh	equ	0xFF4
  7524                           prodl	equ	0xFF3
  7525                           intcon	equ	0xFF2
  7526                           postinc0	equ	0xFEE
  7527                           fsr0h	equ	0xFEA
  7528                           fsr0l	equ	0xFE9
  7529                           wreg	equ	0xFE8
  7530                           indf1	equ	0xFE7
  7531                           fsr1h	equ	0xFE2
  7532                           fsr1l	equ	0xFE1
  7533                           bsr	equ	0xFE0
  7534                           indf2	equ	0xFDF
  7535                           postinc2	equ	0xFDE
  7536                           postdec2	equ	0xFDD
  7537                           fsr2h	equ	0xFDA
  7538                           fsr2l	equ	0xFD9
  7539                           status	equ	0xFD8


Data Sizes:
    Strings     0
    Constant    0
    Data        0
    BSS         283
    Persistent  4
    Stack       0

Auto Spaces:
    Space          Size  Autos    Used
    COMRAM          127     46      97
    BANK0           128     57      77
    BANK1           256     25     241
    BANK2           256     51      51
    BANK3           256      0       0

Pointer List with Targets:

    memcpy@d1	PTR void  size(2) Largest target is 54
		 -> FromMainLow_MQ.queue(BANK1[52]), FromMainHigh_MQ.queue(BANK1[52]), ToMainHigh_MQ.queue(BANK1[52]), ToMainLow_MQ.queue(BANK1[52]), 
		 -> timer0_int_handler@val(BANK0[2]), FromMainHigh_MQ(BANK1[54]), FromMainLow_MQ(BANK1[54]), ToMainHigh_MQ(BANK1[54]), 
		 -> ToMainLow_MQ(BANK1[54]), main@msgbuffer(BANK2[11]), 

    memcpy@d	PTR unsigned char  size(2) Largest target is 54
		 -> FromMainLow_MQ.queue(BANK1[52]), FromMainHigh_MQ.queue(BANK1[52]), ToMainHigh_MQ.queue(BANK1[52]), ToMainLow_MQ.queue(BANK1[52]), 
		 -> timer0_int_handler@val(BANK0[2]), FromMainHigh_MQ(BANK1[54]), FromMainLow_MQ(BANK1[54]), ToMainHigh_MQ(BANK1[54]), 
		 -> ToMainLow_MQ(BANK1[54]), main@msgbuffer(BANK2[11]), 

    memcpy@s1	PTR const void  size(2) Largest target is 54
		 -> ToMainLow_MQ.data(BANK1[10]), ToMainHigh_MQ.data(BANK1[10]), FromMainLow_MQ.data(BANK1[10]), FromMainHigh_MQ.data(BANK1[10]), 
		 -> ToMainLow_MQ.queue.data(BANK1[10]), ToMainHigh_MQ.queue.data(BANK1[10]), FromMainHigh_MQ.queue.data(BANK1[10]), FromMainLow_MQ.queue.data(BANK1[10]), 
		 -> timer0_int_handler@val(BANK0[2]), NULL(NULL[0]), i2c_int_handler@error_buf(BANK0[3]), FromMainHigh_MQ(BANK1[54]), 
		 -> FromMainLow_MQ(BANK1[54]), ToMainHigh_MQ(BANK1[54]), ToMainLow_MQ(BANK1[54]), main@ic(BANK2[28]), 
		 -> main@uc(BANK2[5]), 

    memcpy@s	PTR const unsigned char  size(2) Largest target is 54
		 -> ToMainLow_MQ.data(BANK1[10]), ToMainHigh_MQ.data(BANK1[10]), FromMainLow_MQ.data(BANK1[10]), FromMainHigh_MQ.data(BANK1[10]), 
		 -> ToMainLow_MQ.queue.data(BANK1[10]), ToMainHigh_MQ.queue.data(BANK1[10]), FromMainHigh_MQ.queue.data(BANK1[10]), FromMainLow_MQ.queue.data(BANK1[10]), 
		 -> timer0_int_handler@val(BANK0[2]), NULL(NULL[0]), i2c_int_handler@error_buf(BANK0[3]), FromMainHigh_MQ(BANK1[54]), 
		 -> FromMainLow_MQ(BANK1[54]), ToMainHigh_MQ(BANK1[54]), ToMainLow_MQ(BANK1[54]), main@ic(BANK2[28]), 
		 -> main@uc(BANK2[5]), 

    init_timer1_lthread@tptr	PTR struct __timer1_thread_struct size(2) Largest target is 2
		 -> main@t1thread_data(BANK2[2]), 

    init_uart_recv@uc	PTR struct __uart_comm size(2) Largest target is 5
		 -> main@uc(BANK2[5]), 

    uc_ptr	PTR struct __uart_comm size(2) Largest target is 5
		 -> NULL(NULL[0]), main@uc(BANK2[5]), 

    init_i2c@ic	PTR struct __i2c_comm size(2) Largest target is 28
		 -> main@ic(BANK2[28]), 

    start_i2c_slave_reply@msg	PTR unsigned char  size(2) Largest target is 5
		 -> readMessages@buf(BANK0[5]), 

    ic_ptr	PTR struct __i2c_comm size(2) Largest target is 28
		 -> NULL(NULL[0]), main@ic(BANK2[28]), 

    check_msg@qptr	PTR struct __msg_queue size(2) Largest target is 54
		 -> ToMainHigh_MQ(BANK1[54]), ToMainLow_MQ(BANK1[54]), 

    FromMainHigh_recvmsg@data	PTR void  size(2) Largest target is 2
		 -> timer0_int_handler@val(BANK0[2]), 

    FromMainHigh_recvmsg@msgtype	PTR unsigned char  size(2) Largest target is 2
		 -> timer0_int_handler@msgtype(BANK0[2]), 

    ToMainHigh_recvmsg@data	PTR void  size(2) Largest target is 11
		 -> main@msgbuffer(BANK2[11]), 

    ToMainHigh_recvmsg@msgtype	PTR unsigned char  size(2) Largest target is 1
		 -> main@msgtype(BANK2[1]), 

    ToMainHigh_sendmsg@data	PTR void  size(2) Largest target is 28
		 -> timer0_int_handler@val(BANK0[2]), NULL(NULL[0]), i2c_int_handler@error_buf(BANK0[3]), main@ic(BANK2[28]), 

    ToMainLow_recvmsg@data	PTR void  size(2) Largest target is 11
		 -> main@msgbuffer(BANK2[11]), 

    ToMainLow_recvmsg@msgtype	PTR unsigned char  size(2) Largest target is 1
		 -> main@msgtype(BANK2[1]), 

    ToMainLow_sendmsg@data	PTR void  size(2) Largest target is 5
		 -> NULL(NULL[0]), main@uc(BANK2[5]), 

    recv_msg@msgtype	PTR unsigned char  size(2) Largest target is 2
		 -> timer0_int_handler@msgtype(BANK0[2]), main@msgtype(BANK2[1]), 

    recv_msg@data	PTR void  size(2) Largest target is 11
		 -> timer0_int_handler@val(BANK0[2]), main@msgbuffer(BANK2[11]), 

    recv_msg@qmsg	PTR struct __msg size(2) Largest target is 54
		 -> FromMainLow_MQ.queue(BANK1[52]), FromMainHigh_MQ.queue(BANK1[52]), ToMainHigh_MQ.queue(BANK1[52]), ToMainLow_MQ.queue(BANK1[52]), 
		 -> FromMainHigh_MQ(BANK1[54]), FromMainLow_MQ(BANK1[54]), ToMainHigh_MQ(BANK1[54]), ToMainLow_MQ(BANK1[54]), 

    recv_msg@qptr	PTR struct __msg_queue size(2) Largest target is 54
		 -> FromMainHigh_MQ(BANK1[54]), FromMainLow_MQ(BANK1[54]), ToMainHigh_MQ(BANK1[54]), ToMainLow_MQ(BANK1[54]), 

    sp__memcpy	PTR void  size(2) Largest target is 54
		 -> FromMainLow_MQ.queue(BANK1[52]), FromMainHigh_MQ.queue(BANK1[52]), ToMainHigh_MQ.queue(BANK1[52]), ToMainLow_MQ.queue(BANK1[52]), 
		 -> timer0_int_handler@val(BANK0[2]), FromMainHigh_MQ(BANK1[54]), FromMainLow_MQ(BANK1[54]), ToMainHigh_MQ(BANK1[54]), 
		 -> ToMainLow_MQ(BANK1[54]), main@msgbuffer(BANK2[11]), 

    send_msg@data	PTR void  size(2) Largest target is 28
		 -> timer0_int_handler@val(BANK0[2]), NULL(NULL[0]), i2c_int_handler@error_buf(BANK0[3]), main@ic(BANK2[28]), 
		 -> main@uc(BANK2[5]), 

    send_msg@qmsg	PTR struct __msg size(2) Largest target is 54
		 -> FromMainLow_MQ.queue(BANK1[52]), FromMainHigh_MQ.queue(BANK1[52]), ToMainHigh_MQ.queue(BANK1[52]), ToMainLow_MQ.queue(BANK1[52]), 
		 -> FromMainHigh_MQ(BANK1[54]), FromMainLow_MQ(BANK1[54]), ToMainHigh_MQ(BANK1[54]), ToMainLow_MQ(BANK1[54]), 

    send_msg@qptr	PTR struct __msg_queue size(2) Largest target is 54
		 -> FromMainHigh_MQ(BANK1[54]), FromMainLow_MQ(BANK1[54]), ToMainHigh_MQ(BANK1[54]), ToMainLow_MQ(BANK1[54]), 

    init_queue@qptr	PTR struct __msg_queue size(2) Largest target is 54
		 -> FromMainHigh_MQ(BANK1[54]), FromMainLow_MQ(BANK1[54]), ToMainHigh_MQ(BANK1[54]), ToMainLow_MQ(BANK1[54]), 


Critical Paths under _main in COMRAM

    None.

Critical Paths under _InterruptHandlerHigh in COMRAM

    None.

Critical Paths under _InterruptHandlerLow in COMRAM

    _InterruptHandlerLow->_timer1_int_handler
    _uart_recv_int_handler->_ToMainLow_sendmsg
    _timer1_int_handler->_ToMainLow_sendmsg
    _ToMainLow_sendmsg->_send_msg
    _send_msg->i1_memcpy

Critical Paths under _main in BANK0

    _main->_OpenUSART
    _init_queues->_init_queue
    _block_on_To_msgqueues->_in_main
    _in_main->_in_low_int
    _in_low_int->_in_high_int
    _recv_msg->_memcpy

Critical Paths under _InterruptHandlerHigh in BANK0

    _InterruptHandlerHigh->_i2c_int_handler
    _timer0_int_handler->_FromMainHigh_recvmsg
    _FromMainHigh_recvmsg->i2_recv_msg
    i2_recv_msg->i2_memcpy
    _i2c_int_handler->_ToMainHigh_sendmsg
    _readMessages->_start_i2c_slave_reply
    _ToMainHigh_sendmsg->i2_send_msg
    i2_send_msg->i2_memcpy
    _SleepIfOkay->i2_in_low_int
    i2_in_low_int->i2_in_high_int

Critical Paths under _InterruptHandlerLow in BANK0

    None.

Critical Paths under _main in BANK1

    _main->_ToMainHigh_recvmsg
    _main->_ToMainLow_recvmsg
    _ToMainLow_recvmsg->_recv_msg
    _ToMainHigh_recvmsg->_recv_msg
    _recv_msg->_memcpy

Critical Paths under _InterruptHandlerHigh in BANK1

    None.

Critical Paths under _InterruptHandlerLow in BANK1

    None.

Critical Paths under _main in BANK2

    None.

Critical Paths under _InterruptHandlerHigh in BANK2

    None.

Critical Paths under _InterruptHandlerLow in BANK2

    None.

Critical Paths under _main in BANK3

    None.

Critical Paths under _InterruptHandlerHigh in BANK3

    None.

Critical Paths under _InterruptHandlerLow in BANK3

    None.

Call Graph Tables:

 ---------------------------------------------------------------------------------
 (Depth) Function   	        Calls       Base Space   Used Autos Params    Refs
 ---------------------------------------------------------------------------------
 (0) _main                                                60    60      0    6847
                                             23 BANK1      2     2      0
                                              0 BANK2     51    51      0
                            _OpenADC
                         _OpenTimer0
                         _OpenTimer1
                          _OpenUSART
                         _SetChanADC
                 _ToMainHigh_recvmsg
                  _ToMainLow_recvmsg
              _block_on_To_msgqueues
                  _enable_interrupts
                _i2c_configure_slave
                           _init_i2c
                        _init_queues
                _init_timer1_lthread
                     _init_uart_recv
 ---------------------------------------------------------------------------------
 (1) _init_uart_recv                                       2     0      2      96
                                             51 BANK0      2     0      2
 ---------------------------------------------------------------------------------
 (1) _init_timer1_lthread                                  2     0      2      96
                                             51 BANK0      2     0      2
 ---------------------------------------------------------------------------------
 (1) _init_queues                                          1     1      0     452
                                             55 BANK0      1     1      0
                         _init_queue
 ---------------------------------------------------------------------------------
 (2) _init_queue                                           4     2      2     452
                                             51 BANK0      4     2      2
 ---------------------------------------------------------------------------------
 (1) _init_i2c                                             2     0      2      96
                                             51 BANK0      2     0      2
 ---------------------------------------------------------------------------------
 (1) _i2c_configure_slave                                  1     1      0      31
                                             51 BANK0      1     1      0
 ---------------------------------------------------------------------------------
 (1) _enable_interrupts                                    0     0      0       0
 ---------------------------------------------------------------------------------
 (1) _block_on_To_msgqueues                                1     1      0     283
                                              0 BANK1      1     1      0
                        _Delay1KTCYx
                          _check_msg
                            _in_main
 ---------------------------------------------------------------------------------
 (2) _in_main                                              2     0      2       0
                                             55 BANK0      2     0      2
                        _in_high_int
                         _in_low_int
 ---------------------------------------------------------------------------------
 (3) _in_low_int                                           2     0      2       0
                                             53 BANK0      2     0      2
                        _in_high_int
 ---------------------------------------------------------------------------------
 (4) _in_high_int                                          2     0      2       0
                                             51 BANK0      2     0      2
 ---------------------------------------------------------------------------------
 (2) _check_msg                                            3     1      2     252
                                             51 BANK0      3     1      2
 ---------------------------------------------------------------------------------
 (2) _Delay1KTCYx                                          1     1      0      31
                                             51 BANK0      1     1      0
 ---------------------------------------------------------------------------------
 (1) _ToMainLow_recvmsg                                    5     1      4    2087
                                             18 BANK1      5     1      4
                           _recv_msg
 ---------------------------------------------------------------------------------
 (1) _ToMainHigh_recvmsg                                   5     1      4    2087
                                             18 BANK1      5     1      4
                           _recv_msg
 ---------------------------------------------------------------------------------
 (2) _recv_msg                                            14     7      7    1864
                                              4 BANK1     14     7      7
                             _memcpy
 ---------------------------------------------------------------------------------
 (3) _memcpy                                              10     4      6     459
                                             51 BANK0      6     0      6
                                              0 BANK1      4     4      0
 ---------------------------------------------------------------------------------
 (1) _SetChanADC                                           2     2      0      31
                                             51 BANK0      2     2      0
 ---------------------------------------------------------------------------------
 (1) _OpenUSART                                            6     4      2     375
                                             51 BANK0      6     4      2
 ---------------------------------------------------------------------------------
 (1) _OpenTimer1                                           1     1      0      93
                                             51 BANK0      1     1      0
 ---------------------------------------------------------------------------------
 (1) _OpenTimer0                                           1     1      0      62
                                             51 BANK0      1     1      0
 ---------------------------------------------------------------------------------
 (1) _OpenADC                                              5     3      2     347
                                             51 BANK0      5     3      2
 ---------------------------------------------------------------------------------
 Estimated maximum stack depth 4
 ---------------------------------------------------------------------------------
 (Depth) Function   	        Calls       Base Space   Used Autos Params    Refs
 ---------------------------------------------------------------------------------
 (5) _InterruptHandlerLow                                 17    17      0    5161
                                             29 COMRAM    17    17      0
                 _timer1_int_handler
              _uart_recv_int_handler
 ---------------------------------------------------------------------------------
 (6) _uart_recv_int_handler                                1     1      0    2537
                                             26 COMRAM     1     1      0
                          _ReadUSART
                  _ToMainLow_sendmsg
 ---------------------------------------------------------------------------------
 (7) _ReadUSART                                            1     1      0      34
                                              0 COMRAM     1     1      0
 ---------------------------------------------------------------------------------
 (6) _timer1_int_handler                                   3     3      0    2624
                                             26 COMRAM     3     3      0
                         _ReadTimer1
                  _ToMainLow_sendmsg
                        _WriteTimer1
 ---------------------------------------------------------------------------------
 (7) _WriteTimer1                                          4     2      2      88
                                              0 COMRAM     4     2      2
 ---------------------------------------------------------------------------------
 (7) _ToMainLow_sendmsg                                    4     1      3    2503
                                             22 COMRAM     4     1      3
                           _send_msg
 ---------------------------------------------------------------------------------
 (8) _send_msg                                            12     6      6    2020
                                             10 COMRAM    12     6      6
                           i1_memcpy
 ---------------------------------------------------------------------------------
 (9) i1_memcpy                                            10     4      6     646
                                              0 COMRAM    10     4      6
 ---------------------------------------------------------------------------------
 (7) _ReadTimer1                                           4     2      2      30
                                              0 COMRAM     4     2      2
 ---------------------------------------------------------------------------------
 Estimated maximum stack depth 9
 ---------------------------------------------------------------------------------
 (Depth) Function   	        Calls       Base Space   Used Autos Params    Refs
 ---------------------------------------------------------------------------------
 (10) _InterruptHandlerHigh                               14    14      0   10839
                                             37 BANK0     14    14      0
                        _SleepIfOkay
                    _i2c_int_handler
                 _timer0_int_handler
 ---------------------------------------------------------------------------------
 (11) _timer0_int_handler                                  7     7      0    6458
                                             29 BANK0      7     7      0
               _FromMainHigh_recvmsg
                 _ToMainHigh_sendmsg
                        _WriteTimer0
                          _start_adc
 ---------------------------------------------------------------------------------
 (12) _start_adc                                           0     0      0       0
 ---------------------------------------------------------------------------------
 (12) _WriteTimer0                                         4     2      2     164
                                              0 BANK0      4     2      2
 ---------------------------------------------------------------------------------
 (12) _FromMainHigh_recvmsg                                5     1      4    2970
                                             24 BANK0      5     1      4
                         i2_recv_msg
 ---------------------------------------------------------------------------------
 (13) i2_recv_msg                                         14     7      7    2747
                                             10 BANK0     14     7      7
                           i2_memcpy
 ---------------------------------------------------------------------------------
 (11) _i2c_int_handler                                    11    11      0    4097
                                             26 BANK0     11    11      0
                 _ToMainHigh_sendmsg
                       _handle_start
                       _readMessages
 ---------------------------------------------------------------------------------
 (12) _readMessages                                        6     6      0     343
                                              5 BANK0      6     6      0
              _start_i2c_slave_reply
 ---------------------------------------------------------------------------------
 (13) _start_i2c_slave_reply                               5     3      2     158
                                              0 BANK0      5     3      2
 ---------------------------------------------------------------------------------
 (12) _handle_start                                        1     1      0      31
                                              0 BANK0      1     1      0
 ---------------------------------------------------------------------------------
 (12) _ToMainHigh_sendmsg                                  4     1      3    3142
                                             22 BANK0      4     1      3
                         i2_send_msg
 ---------------------------------------------------------------------------------
 (13) i2_send_msg                                         12     6      6    2659
                                             10 BANK0     12     6      6
                           i2_memcpy
 ---------------------------------------------------------------------------------
 (14) i2_memcpy                                           10     4      6    1108
                                              0 BANK0     10     4      6
 ---------------------------------------------------------------------------------
 (11) _SleepIfOkay                                         0     0      0     284
                   _enter_sleep_mode
                        i2_check_msg
                      i2_in_high_int
                       i2_in_low_int
 ---------------------------------------------------------------------------------
 (12) i2_in_low_int                                        2     0      2       0
                                              2 BANK0      2     0      2
                      i2_in_high_int
 ---------------------------------------------------------------------------------
 (13) i2_in_high_int                                       2     0      2       0
                                              0 BANK0      2     0      2
 ---------------------------------------------------------------------------------
 (12) i2_check_msg                                         3     1      2     284
                                              0 BANK0      3     1      2
 ---------------------------------------------------------------------------------
 (12) _enter_sleep_mode                                    0     0      0       0
 ---------------------------------------------------------------------------------
 Estimated maximum stack depth 14
 ---------------------------------------------------------------------------------

 Call Graph Graphs:

 _main (ROOT)
   _OpenADC
   _OpenTimer0
   _OpenTimer1
   _OpenUSART
   _SetChanADC
   _ToMainHigh_recvmsg
     _recv_msg
       _memcpy
   _ToMainLow_recvmsg
     _recv_msg
       _memcpy
   _block_on_To_msgqueues
     _Delay1KTCYx
     _check_msg
     _in_main
       _in_high_int
       _in_low_int
         _in_high_int
   _enable_interrupts
   _i2c_configure_slave
   _init_i2c
   _init_queues
     _init_queue
   _init_timer1_lthread
   _init_uart_recv

 _InterruptHandlerLow (ROOT)
   _timer1_int_handler
     _ReadTimer1
     _ToMainLow_sendmsg
       _send_msg
         i1_memcpy
     _WriteTimer1
   _uart_recv_int_handler
     _ReadUSART
     _ToMainLow_sendmsg
       _send_msg
         i1_memcpy

 _InterruptHandlerHigh (ROOT)
   _SleepIfOkay
     _enter_sleep_mode
     i2_check_msg
     i2_in_high_int
     i2_in_low_int
       i2_in_high_int
   _i2c_int_handler
     _ToMainHigh_sendmsg
       i2_send_msg
         i2_memcpy
     _handle_start
     _readMessages
       _start_i2c_slave_reply
   _timer0_int_handler
     _FromMainHigh_recvmsg
       i2_recv_msg
         i2_memcpy
     _ToMainHigh_sendmsg
       i2_send_msg
         i2_memcpy
     _WriteTimer0
     _start_adc

 Address spaces:
Name               Size   Autos  Total    Cost      Usage
BIGRAM             3FF      0       0      13        0.0%
BITBANK3           100      0       0      11        0.0%
BANK3              100      0       0      12        0.0%
BITBANK2           100      0       0       7        0.0%
BANK2              100     33      33       8       19.9%
BITBANK1           100      0       0      10        0.0%
BANK1              100     19      F1       6       94.1%
BITBANK0            80      0       0       4        0.0%
BANK0               80     39      4D       5       60.2%
BITCOMRAM           7F      0       0       0        0.0%
COMRAM              7F     2E      61       1       76.4%
BITSFR               0      0       0      40        0.0%
SFR                  0      0       0      40        0.0%
STACK                0      0       0       2        0.0%
NULL                 0      0       0       0        0.0%
ABS                  0      0     1D2       9        0.0%
DATA                 0      0     1D2       3        0.0%
CODE                 0      0       0       0        0.0%


Microchip Technology PIC18 Macro Assembler V1.30 build 55553 
Symbol Table                                                                                   Wed Mar 12 14:40:31 2014

      _MQ_Main_Willing_to_block 002A                     _SSPSTATbits 000FC7       __end_of_ToMainLow_recvmsg 13F0  
                            bsr 000FE0       __end_of_ToMainLow_sendmsg 1664                    __CFG_CP0$OFF 000000  
             i2recv_msg@msgtype 008D               i2recv_msg@tlength 0094                             l510 14CE  
                           l512 14E6                             l513 14E8                             l460 0F06  
                           l560 0DC6                             l561 0DC8                             l554 0D96  
                           l486 1610                             l558 0DB6                             l487 1612  
                           l559 0DB8                             l787 16C4            __size_of_WriteTimer0 0012  
          __size_of_WriteTimer1 0012                  _FromMainLow_MQ 0136                             wreg 000FE8  
                  __CFG_IESO$ON 000000                    ?_in_high_int 00B3                ??_init_uart_recv 00B5  
               ReadTimer1@timer 0032                     main@config1 020C                     main@config2 020D  
           i2recv_msg@maxlength 008C                            l3311 0FD6                            l3305 0FAA  
                          l3219 14D0                            l3155 06CC                            l3317 1002  
                          l3343 11F6                            l3335 1052                            l3267 0D98  
                          l3259 0D82                            l3363 07A6                            l3349 121A  
                          l2911 139E                            l3379 086C                            l2897 1314  
                          l2889 12F2                            _LATB 000F8A                            u2637 16C6  
                          i1l63 0070                 _FromMainHigh_MQ 0100                   __CFG_FCMEN$ON 000000  
                          _buff 0015          ?_block_on_To_msgqueues 0030                            _main 05C6  
                          fsr0h 000FEA                            fsr1h 000FE2                            fsr0l 000FE9  
                          fsr2h 000FDA                            indf1 000FE7                            fsr1l 000FE1  
                          indf2 000FDF                            fsr2l 000FD9                     main@msgtype 0211  
                          pclat 000FFA                     i2_check_msg 1558                            prodh 000FF4  
                          prodl 000FF3           handle_start@data_read 0080                            start 00B6  
                    i2_recv_msg 0870                   __CFG_FOSC2$ON 000000                      i2_send_msg 09A6  
     ToMainHigh_recvmsg@msgtype 01EA                  send_msg@length 003C                 __end_of_OpenADC 0F0A  
   __size_of_timer0_int_handler 0092                     _Delay1KTCYx 16C0                           ?_main 0030  
                         _T0CON 000FD5                           _T1CON 000FCD                      i1memcpy@d1 0030  
                         i2l304 0468                           i2l260 0D28                           i1l572 16B0  
                         i2l270 0456                           i2l272 0170                           i2l290 02E8  
                         i2l276 01AE                           i2l298 03DA                      i1memcpy@s1 0032  
   FromMainHigh_recvmsg@msgtype 0098                           _RCREG 000FAE                           _RCSTA 000FAB  
                         _TMR0H 000FD7                           _TMR1H 000FCF                           _TMR0L 000FD6  
                         _TMR1L 000FCE                           _SPBRG 000FAF                           _TRISB 000F93  
                         _TXSTA 000FAC                      i2memcpy@d1 0080                      i2memcpy@s1 0082  
                  ?_init_queues 0030       __size_of_enter_sleep_mode 0006                 __end_of_in_main 13AE  
    ToMainLow_recvmsg@maxlength 01EE         i2c_configure_slave@addr 00B3                           tablat 000FF5  
                         status 000FD8                __end_ofi1_memcpy 14B4                __end_ofi2_memcpy 1290  
               __initialization 15BE                    __end_of_main 073A                      _ReadTimer1 170C  
   __size_of_timer1_int_handler 0030      __size_of_ToMainLow_recvmsg 0042      __size_of_ToMainLow_sendmsg 0026  
 __size_of_FromMainHigh_recvmsg 0042           __size_ofi2_in_low_int 0046                          ??_main 01EF  
               send_msg@msgtype 003D                   __activetblptr 000002                 send_msg@tlength 0041  
                    _SetChanADC 1664            __end_of_handle_start 0D62                   ?_readMessages 0030  
                        _ADCON0 000FC2                          _ADCON1 000FC1                          _ADCON2 000FC0  
                        _ADRESH 000FC4                          _ADRESL 000FC3         ??_uart_recv_int_handler 004A  
                        i1l3631 0066                          i1l3561 14A2                          i2l3011 0372  
                        i1l3555 1486                          i1l3619 0CA6                          i2l3015 0384  
                        i2l3009 0342                          i1l3585 0BB8                          i2l3043 046C  
                        i2l3037 0430                          i2l3065 05B6                          i2l3057 052E  
                        i2l3049 04B4                      _OpenTimer0 15EC                      _OpenTimer1 14B4  
                        i2l3085 1170                  __CFG_WDTEN$OFF 000000                          i2l3415 0AC0  
                        i2l3505 0A02                          i2l3435 0D3E                          i2l3419 0B2A  
                        i2l3437 0D50                          i2l3481 1338                          i2l3529 08DC  
                        i2l3545 09A2                          i2l2921 0F44                          i2l3571 1278  
                        i2l3565 1254                          i2l2943 014E                          i2l2927 0F4E  
                        i2l3489 135A                          i2l2949 0166                          i2l2967 01E0  
                        i2l2985 0242                          i2l2969 0200                          i2l2987 0270  
                        i2l2979 0230     __end_of_i2c_configure_slave 163E                   ??_SleepIfOkay 0084  
            __size_of_ReadUSART 001E                          _OSCCON 000FD3                          _SPBRGH 000FB0  
                        _SSPADD 000FC8                          _SSPBUF 000FC9  __size_of_start_i2c_slave_reply 00D6  
 __end_of_start_i2c_slave_reply 0B80                     ?i2_recv_msg 008A                       ??_OpenADC 00B5  
                  i2_in_low_int 1324                     ?i2_send_msg 008A                  __CFG_XINST$OFF 000000  
            __size_of_OpenUSART 0092                 _i2c_int_handler 00BA                OpenTimer0@config 00B3  
                        _ic_ptr 005E                 readMessages@buf 0086                   main@msgbuffer 0200  
              __end_of_init_i2c 12DE                OpenTimer1@config 00B3                          _length 002D  
                        _memcpy 11D4                          clear_0 15C4                          clear_1 15D0  
                        clear_2 15DC                          _uc_ptr 0060                          main@ic 0217  
                        _status 002F                          main@uc 0212                __end_of_recv_msg 0870  
   start_i2c_slave_reply@length 0084                       ??_in_main 00B9                __end_of_send_msg 0C2A  
                ??_readMessages 0085           timer0_int_handler@val 00A2         i2c_int_handler@i2c_data 00A2  
                        tblptrh 000FF7                          tblptrl 000FF6                          tblptru 000FF8  
                   init_queue@i 00B6        ToMainLow_recvmsg@msgtype 01EA            __size_of_in_high_int 0012  
               __CFG_FOSC$HSPLL 000000                      __accesstop 0080         __end_of__initialization 15E2  
    __end_of_ToMainHigh_recvmsg 1432      __end_of_ToMainHigh_sendmsg 1558     __end_of_init_timer1_lthread 16E8  
           __end_of_SleepIfOkay 11D4                  __pcstackCOMRAM 0030          __size_ofi2_in_high_int 0012  
                   ?_ReadTimer1 0030              __size_of_check_msg 0036               __end_of_ReadUSART 16C0  
     timer0_int_handler@msgtype 00A0                     ?_SetChanADC 0030                       ?i1_memcpy 0030  
 __size_of_InterruptHandlerHigh 0F84     __end_of_InterruptHandlerLow 00B6                       ?i2_memcpy 0080  
                 _ToMainHigh_MQ 016C             __size_ofi2_recv_msg 0136                _enter_sleep_mode 1756  
           __size_ofi2_send_msg 0104                   ReadUSART@data 0030               __end_of_OpenUSART 0DF4  
                 check_msg@qptr 00B3         ??_block_on_To_msgqueues 01D8            __size_of_init_queues 006E  
                    __pbssBANK0 00B9                      __pbssBANK1 0100                     ?_OpenTimer0 0030  
                   ?_OpenTimer1 0030                      __pnvCOMRAM 005E         __end_of_i2c_int_handler 05C6  
                  ?i2_check_msg 0080               recv_msg@maxlength 01DE                 recv_msg@msgtype 01DF  
               recv_msg@tlength 01E6           __size_of_handle_start 009C                    ?_Delay1KTCYx 0030  
              WriteTimer0@timer 0082                         ?_memcpy 00B3                WriteTimer1@timer 0032  
                 ??_WriteTimer0 0082                   ??_WriteTimer1 0032                      ??i1_memcpy 0036  
                    _bufferFlag 0024                      ??i2_memcpy 0086                   i2_in_high_int 1730  
                       _SSPCON1 000FC6                         _SSPCON2 000FC5              __size_of_start_adc 000C  
                       _SSPSTAT 000FC7             __size_of_ReadTimer1 0012               __end_of_check_msg 1522  
                     ?_init_i2c 00B3                     _SleepIfOkay 116A                       ?_recv_msg 01DC  
                     _ADCResult 0022                         _OpenADC 0E86                      _in_low_int 12DE  
                  _handle_start 0CC6                         __Hparam 0000             __size_of_SetChanADC 0020  
                     ?_send_msg 003A            __end_of_readMessages 10FC                         __Lparam 0000  
    __end_of_timer0_int_handler 0E86                init_uart_recv@uc 00B3                 __CFG_STVREN$OFF 000000  
                       __pcinit 15BE                 __size_of_memcpy 005E                      _init_queue 100A  
                       __ramtop 0400             __size_of_OpenTimer0 002A             __size_of_OpenTimer1 0038  
                       __ptext0 05C6                         __ptext1 1684                         __ptext2 16D6  
                       __ptext3 10FC                         __ptext4 100A                         __ptext5 1290  
                       __ptext6 1616                         __ptext7 174E                         __ptext8 0F8C  
                       __ptext9 136A                       _T0CONbits 000FD5                         _in_main 136A  
                     _T1CONbits 000FCD             __end_of_WriteTimer0 1730             __end_of_WriteTimer1 170C  
                ?i2_in_high_int 0080                         _msgtype 002E                  OpenADC@config2 00B3  
                       _voltage 001F                  __pintcode_body 0F0A    __end_of_FromMainHigh_recvmsg 1474  
          end_of_initialization 15E2  __size_of_uart_recv_int_handler 009C                         memcpy@d 01D8  
                       memcpy@n 00B7                         memcpy@s 01DA   __end_of_uart_recv_int_handler 0CC6  
                    ??_init_i2c 00B5     i2c_int_handler@data_written 009F                   __Lmediumconst 0000  
                       int_func 0F0A         __size_of_init_uart_recv 001E                ?_i2c_int_handler 0030  
                  ??i2_recv_msg 0091                      ??_recv_msg 01E3                    ??i2_send_msg 0090  
                    ??_send_msg 0040                  main@portconfig 020E      __end_of_timer1_int_handler 15BE  
                     _RCSTAbits 000FAB                         postdec2 000FDD                         postinc0 000FEE  
                       postinc2 000FDE       ToMainHigh_sendmsg@msgtype 0096               __end_of_start_adc 174E  
                _last_reg_recvd 002C                       _TRISCbits 000F94              __end_ofi2_recv_msg 09A6  
            __end_ofi2_send_msg 0AAA   FromMainHigh_recvmsg@maxlength 009C        timer1_int_handler@result 004B  
                     _TXSTAbits 000FAC                      main@length 020B                     ?_in_low_int 00B5  
         _start_i2c_slave_reply 0AAA    __size_of_i2c_configure_slave 0028            __size_ofi2_check_msg 0036  
      __end_of_enter_sleep_mode 175C                    ??_ReadTimer1 0032              _ToMainHigh_recvmsg 13F0  
                     i1memcpy@d 0036              _ToMainHigh_sendmsg 1522                       i1memcpy@n 0034  
                     i1memcpy@s 0038                     ?_init_queue 00B3                       i2memcpy@d 0086  
                   _WriteTimer0 171E                     _WriteTimer1 16FA                       i2memcpy@n 0084  
                     i2memcpy@s 0088                  __end_of_memcpy 1232               _enable_interrupts 174E  
          __size_of_Delay1KTCYx 0016                    ??_SetChanADC 00B3             ?_ToMainHigh_recvmsg 01EA  
               ??i2_in_high_int 0082        i2c_int_handler@data_read 00A4             ?_ToMainHigh_sendmsg 0096  
            ?_enable_interrupts 0030             start_initialization 15BE                   ??_in_high_int 00B5  
                     _ReadUSART 16A2               __size_ofi1_memcpy 0040               __size_ofi2_memcpy 005E  
           ??_enable_interrupts 00B3                    ??_OpenTimer0 00B3                    ??_OpenTimer1 00B3  
__size_of_block_on_To_msgqueues 007E              __end_of_ReadTimer1 171E   __end_of_block_on_To_msgqueues 100A  
                     _OpenUSART 0D62           __size_of_readMessages 0078    __end_of_InterruptHandlerHigh 0F8C  
                    init_i2c@ic 00B3            ??_ToMainHigh_recvmsg 00B9            ??_ToMainHigh_sendmsg 0099  
            __end_of_SetChanADC 1684        i2c_int_handler@error_buf 009C       __end_of_enable_interrupts 1756  
                      ??_memcpy 00B9            _FromMainHigh_recvmsg 1432    __size_of_init_timer1_lthread 0012  
            __end_of_OpenTimer0 1616              __end_of_OpenTimer1 14EC        i2c_int_handler@msg_ready 00A3  
                   __pbssCOMRAM 0001                      ?_ReadUSART 0030                   ??_init_queues 00B7  
                 __pcstackBANK0 0080                   __pcstackBANK1 01D8                   __pcstackBANK2 0200  
           __size_of_in_low_int 0046                    _readMessages 1084        start_i2c_slave_reply@msg 0080  
           __CFG_CCP2MX$DEFAULT 000000                 Delay1KTCYx@unit 00B3        ToMainLow_sendmsg@msgtype 0046  
  __size_of_InterruptHandlerLow 009E             __end_of_in_high_int 16FA                      ?_OpenUSART 00B3  
                  ?_SleepIfOkay 0030           ToMainLow_recvmsg@data 01EC                    _ToMainLow_MQ 01A2  
           __size_of_init_queue 007A                  _init_uart_recv 1684                       _check_msg 14EC  
        ?_start_i2c_slave_reply 0080               __size_of_init_i2c 004E               OpenADC@portconfig 00B4  
                      ?_OpenADC 00B3                    recv_msg@data 01E1                    recv_msg@qmsg 01E8  
                  recv_msg@slot 01E5                    recv_msg@qptr 01DC               __size_of_recv_msg 0136  
                     __pintcode 0008               __size_of_send_msg 00AA           ?_FromMainHigh_recvmsg 0098  
                   __pintcodelo 0018                       _bufferLen 0026          ToMainHigh_recvmsg@data 01EC  
    i2c_int_handler@msg_to_send 00A1                        ?_in_main 00B7               WriteTimer0@timer0 0080  
            _timer0_int_handler 0DF4               WriteTimer1@timer1 0030           ToMainLow_sendmsg@data 0047  
           ?_timer0_int_handler 0030          __end_of_init_uart_recv 16A2             __end_of_init_queues 116A  
                 OpenADC@config 00B7                        _LATBbits 000F8A                 i2check_msg@qptr 0080  
                    ?_check_msg 00B3                        _IPR1bits 000F9F                        _PIE1bits 000F9D  
                     _msgbuffer 00B9                   ?i2_in_low_int 0082                        _PIR1bits 000F9E  
        ToMainHigh_sendmsg@data 0097                        _RCONbits 000FD0                __CFG_WDTPS$32768 000000  
          ??_timer0_int_handler 009D      __size_of_enable_interrupts 0008                      _ADCON0bits 000FC2  
                     _start_adc 1742              _timer1_int_handler 158E                        i1_memcpy 1474  
          _InterruptHandlerHigh 0008                     ??_ReadUSART 0030                        i2_memcpy 1232  
      FromMainHigh_recvmsg@data 009A                     _in_high_int 16E8                    send_msg@data 003E  
           _i2c_configure_slave 1616                    send_msg@qmsg 0044                    send_msg@slot 0043  
                  send_msg@qptr 003A                      _ADCBuffer0 0001                      _ADCBuffer1 000B  
           ?_timer1_int_handler 0030                 ?_init_uart_recv 00B3                     ??_OpenUSART 00B5  
               OpenUSART@config 00B8                  ??i2_in_low_int 0084                        __Hparam0 0000  
         _uart_recv_int_handler 0C2A                    ??_in_low_int 00B7                        __Lparam0 0000  
              __size_of_OpenADC 0084            ?_i2c_configure_slave 0030               ?_enter_sleep_mode 0030  
        ??_FromMainHigh_recvmsg 009C            ??_timer1_int_handler 004A        __size_of_i2c_int_handler 050C  
            ??_enter_sleep_mode 0080                    ??_init_queue 00B5                    ?_WriteTimer0 0080  
                  ?_WriteTimer1 0030         ToMainLow_sendmsg@length 0049                      ?_start_adc 0030  
         ?_InterruptHandlerHigh 0030                __size_of_in_main 0044               i2send_msg@msgtype 008D  
   ToMainHigh_recvmsg@maxlength 01EE               i2send_msg@tlength 0091         init_timer1_lthread@tptr 00B3  
                   _init_queues 10FC              __end_of_in_low_int 1324                        __ptext10 12DE  
                      __ptext11 16E8                        __ptext20 14B4                        __ptext12 14EC  
                      __ptext21 15EC                        __ptext13 16C0                        __ptext30 1474  
                      __ptext22 0E86                        __ptext14 13AE                        __ptext31 170C  
                      __ptext15 13F0                        __ptext40 0AAA                        __ptext24 0C2A  
                      __ptext16 073A                        __ptext41 0CC6                        __ptext33 0DF4  
                      __ptext25 16A2                        __ptext17 11D4                        __ptext42 1522  
                      __ptext34 1742                        __ptext26 158E                        __ptext18 1664  
                      __ptext43 09A6                        __ptext35 171E                        __ptext27 16FA  
                      __ptext19 0D62                        __ptext44 1232                        __ptext36 1432  
                      __ptext28 163E                        __ptext45 116A                        __ptext37 0870  
                      __ptext29 0B80                        __ptext46 1324                        __ptext38 00BA  
                      __ptext47 1730                        __ptext39 1084                        __ptext48 1558  
                      __ptext49 1756        timer0_int_handler@length 009E                        _init_i2c 1290  
           _init_timer1_lthread 16D6                   __size_of_main 0174                   ??i2_check_msg 0082  
             main@t1thread_data 020F                     ??_check_msg 00B5              __end_of_init_queue 1084  
          __size_of_SleepIfOkay 006A                        _recv_msg 073A           ??_i2c_configure_slave 00B3  
                      _send_msg 0B80                  init_queue@qptr 00B3                  i2recv_msg@data 008F  
                i2recv_msg@qmsg 0096                   ??_Delay1KTCYx 00B3                  i2recv_msg@slot 0093  
                i2recv_msg@qptr 008A             _InterruptHandlerLow 0018            ?_init_timer1_lthread 00B3  
                   _OSCTUNEbits 000F9B                      _INTCONbits 000FF2                  OpenUSART@spbrg 00B3  
                      memcpy@d1 00B3                        memcpy@s1 00B5           __end_ofi2_in_high_int 1742  
  i2c_int_handler@overrun_error 00A0                i2send_msg@length 008C                        intlevel1 0000  
                      intlevel2 0000            ?_InterruptHandlerLow 0030         ??_start_i2c_slave_reply 0082  
        ?_uart_recv_int_handler 0030               SetChanADC@channel 00B4           _block_on_To_msgqueues 0F8C  
                 ?_handle_start 0030     __size_of_ToMainHigh_recvmsg 0042     __size_of_ToMainHigh_sendmsg 0036  
                 _previousValue 0028                      _OSCCONbits 000FD3        ToMainHigh_sendmsg@length 0099  
           __end_ofi2_check_msg 158E           ??_init_timer1_lthread 00B5          ??_InterruptHandlerHigh 00A5  
             _ToMainLow_recvmsg 13AE                     ??_start_adc 0080               _ToMainLow_sendmsg 163E  
          __end_ofi2_in_low_int 136A              ?_ToMainLow_recvmsg 01EA             __end_of_Delay1KTCYx 16D6  
             ??_i2c_int_handler 009A              ?_ToMainLow_sendmsg 0046                     _SSPCON1bits 000FC6  
                   _SSPCON2bits 000FC5                  i2send_msg@data 008E           ??_InterruptHandlerLow 004D  
           ??_ToMainLow_recvmsg 00B9                  i2send_msg@qmsg 0094                  i2send_msg@slot 0093  
                i2send_msg@qptr 008A             ??_ToMainLow_sendmsg 0049                  ??_handle_start 0080  
                  _USART_Status 002B  
